
quadcopter.elf:     file format elf32-avr

Sections:
Idx Name          Size      VMA       LMA       File off  Algn
  0 .data         00000052  00800200  00001e68  00001efc  2**0
                  CONTENTS, ALLOC, LOAD, DATA
  1 .text         00001e68  00000000  00000000  00000094  2**1
                  CONTENTS, ALLOC, LOAD, READONLY, CODE
  2 .bss          00000137  00800252  00800252  00001f4e  2**0
                  ALLOC
  3 .stab         0000096c  00000000  00000000  00001f50  2**2
                  CONTENTS, READONLY, DEBUGGING
  4 .stabstr      000000b4  00000000  00000000  000028bc  2**0
                  CONTENTS, READONLY, DEBUGGING
  5 .comment      00000011  00000000  00000000  00002970  2**0
                  CONTENTS, READONLY

Disassembly of section .text:

00000000 <__vectors>:
       0:	0c 94 72 00 	jmp	0xe4	; 0xe4 <__ctors_end>
       4:	0c 94 93 00 	jmp	0x126	; 0x126 <__bad_interrupt>
       8:	0c 94 93 00 	jmp	0x126	; 0x126 <__bad_interrupt>
       c:	0c 94 93 00 	jmp	0x126	; 0x126 <__bad_interrupt>
      10:	0c 94 93 00 	jmp	0x126	; 0x126 <__bad_interrupt>
      14:	0c 94 93 00 	jmp	0x126	; 0x126 <__bad_interrupt>
      18:	0c 94 93 00 	jmp	0x126	; 0x126 <__bad_interrupt>
      1c:	0c 94 93 00 	jmp	0x126	; 0x126 <__bad_interrupt>
      20:	0c 94 93 00 	jmp	0x126	; 0x126 <__bad_interrupt>
      24:	0c 94 93 00 	jmp	0x126	; 0x126 <__bad_interrupt>
      28:	0c 94 93 00 	jmp	0x126	; 0x126 <__bad_interrupt>
      2c:	0c 94 6e 09 	jmp	0x12dc	; 0x12dc <__vector_11>
      30:	0c 94 93 00 	jmp	0x126	; 0x126 <__bad_interrupt>
      34:	0c 94 fb 0c 	jmp	0x19f6	; 0x19f6 <__vector_13>
      38:	0c 94 93 00 	jmp	0x126	; 0x126 <__bad_interrupt>
      3c:	0c 94 93 00 	jmp	0x126	; 0x126 <__bad_interrupt>
      40:	0c 94 93 00 	jmp	0x126	; 0x126 <__bad_interrupt>
      44:	0c 94 93 00 	jmp	0x126	; 0x126 <__bad_interrupt>
      48:	0c 94 93 00 	jmp	0x126	; 0x126 <__bad_interrupt>
      4c:	0c 94 93 00 	jmp	0x126	; 0x126 <__bad_interrupt>
      50:	0c 94 93 00 	jmp	0x126	; 0x126 <__bad_interrupt>
      54:	0c 94 93 00 	jmp	0x126	; 0x126 <__bad_interrupt>
      58:	0c 94 93 00 	jmp	0x126	; 0x126 <__bad_interrupt>
      5c:	0c 94 c2 0d 	jmp	0x1b84	; 0x1b84 <__vector_23>
      60:	0c 94 93 00 	jmp	0x126	; 0x126 <__bad_interrupt>
      64:	0c 94 87 0d 	jmp	0x1b0e	; 0x1b0e <__vector_25>
      68:	0c 94 93 00 	jmp	0x126	; 0x126 <__bad_interrupt>
      6c:	0c 94 97 0d 	jmp	0x1b2e	; 0x1b2e <__vector_27>
      70:	0c 94 93 00 	jmp	0x126	; 0x126 <__bad_interrupt>
      74:	0c 94 93 00 	jmp	0x126	; 0x126 <__bad_interrupt>
      78:	0c 94 93 00 	jmp	0x126	; 0x126 <__bad_interrupt>
      7c:	0c 94 93 00 	jmp	0x126	; 0x126 <__bad_interrupt>
      80:	0c 94 93 00 	jmp	0x126	; 0x126 <__bad_interrupt>
      84:	0c 94 93 00 	jmp	0x126	; 0x126 <__bad_interrupt>
      88:	0c 94 93 00 	jmp	0x126	; 0x126 <__bad_interrupt>
      8c:	0c 94 93 00 	jmp	0x126	; 0x126 <__bad_interrupt>
      90:	0c 94 93 00 	jmp	0x126	; 0x126 <__bad_interrupt>
      94:	0c 94 93 00 	jmp	0x126	; 0x126 <__bad_interrupt>
      98:	0c 94 93 00 	jmp	0x126	; 0x126 <__bad_interrupt>
      9c:	0c 94 93 00 	jmp	0x126	; 0x126 <__bad_interrupt>
      a0:	0c 94 93 00 	jmp	0x126	; 0x126 <__bad_interrupt>
      a4:	0c 94 93 00 	jmp	0x126	; 0x126 <__bad_interrupt>
      a8:	0c 94 93 00 	jmp	0x126	; 0x126 <__bad_interrupt>
      ac:	0c 94 93 00 	jmp	0x126	; 0x126 <__bad_interrupt>
      b0:	0c 94 93 00 	jmp	0x126	; 0x126 <__bad_interrupt>
      b4:	0c 94 93 00 	jmp	0x126	; 0x126 <__bad_interrupt>
      b8:	0c 94 93 00 	jmp	0x126	; 0x126 <__bad_interrupt>
      bc:	0c 94 93 00 	jmp	0x126	; 0x126 <__bad_interrupt>
      c0:	0c 94 93 00 	jmp	0x126	; 0x126 <__bad_interrupt>
      c4:	0c 94 93 00 	jmp	0x126	; 0x126 <__bad_interrupt>
      c8:	0c 94 93 00 	jmp	0x126	; 0x126 <__bad_interrupt>
      cc:	0c 94 93 00 	jmp	0x126	; 0x126 <__bad_interrupt>
      d0:	0c 94 93 00 	jmp	0x126	; 0x126 <__bad_interrupt>
      d4:	0c 94 93 00 	jmp	0x126	; 0x126 <__bad_interrupt>
      d8:	0c 94 93 00 	jmp	0x126	; 0x126 <__bad_interrupt>
      dc:	0c 94 93 00 	jmp	0x126	; 0x126 <__bad_interrupt>
      e0:	0c 94 93 00 	jmp	0x126	; 0x126 <__bad_interrupt>

000000e4 <__ctors_end>:
      e4:	11 24       	eor	r1, r1
      e6:	1f be       	out	0x3f, r1	; 63
      e8:	cf ef       	ldi	r28, 0xFF	; 255
      ea:	d1 e2       	ldi	r29, 0x21	; 33
      ec:	de bf       	out	0x3e, r29	; 62
      ee:	cd bf       	out	0x3d, r28	; 61
      f0:	00 e0       	ldi	r16, 0x00	; 0
      f2:	0c bf       	out	0x3c, r16	; 60

000000f4 <__do_copy_data>:
      f4:	12 e0       	ldi	r17, 0x02	; 2
      f6:	a0 e0       	ldi	r26, 0x00	; 0
      f8:	b2 e0       	ldi	r27, 0x02	; 2
      fa:	e8 e6       	ldi	r30, 0x68	; 104
      fc:	fe e1       	ldi	r31, 0x1E	; 30
      fe:	00 e0       	ldi	r16, 0x00	; 0
     100:	0b bf       	out	0x3b, r16	; 59
     102:	02 c0       	rjmp	.+4      	; 0x108 <__do_copy_data+0x14>
     104:	07 90       	elpm	r0, Z+
     106:	0d 92       	st	X+, r0
     108:	a2 35       	cpi	r26, 0x52	; 82
     10a:	b1 07       	cpc	r27, r17
     10c:	d9 f7       	brne	.-10     	; 0x104 <__do_copy_data+0x10>

0000010e <__do_clear_bss>:
     10e:	13 e0       	ldi	r17, 0x03	; 3
     110:	a2 e5       	ldi	r26, 0x52	; 82
     112:	b2 e0       	ldi	r27, 0x02	; 2
     114:	01 c0       	rjmp	.+2      	; 0x118 <.do_clear_bss_start>

00000116 <.do_clear_bss_loop>:
     116:	1d 92       	st	X+, r1

00000118 <.do_clear_bss_start>:
     118:	a9 38       	cpi	r26, 0x89	; 137
     11a:	b1 07       	cpc	r27, r17
     11c:	e1 f7       	brne	.-8      	; 0x116 <.do_clear_bss_loop>
     11e:	0e 94 07 05 	call	0xa0e	; 0xa0e <main>
     122:	0c 94 32 0f 	jmp	0x1e64	; 0x1e64 <_exit>

00000126 <__bad_interrupt>:
     126:	0c 94 00 00 	jmp	0	; 0x0 <__vectors>

0000012a <_fpadd_parts>:
     12a:	a0 e0       	ldi	r26, 0x00	; 0
     12c:	b0 e0       	ldi	r27, 0x00	; 0
     12e:	eb e9       	ldi	r30, 0x9B	; 155
     130:	f0 e0       	ldi	r31, 0x00	; 0
     132:	0c 94 ce 0e 	jmp	0x1d9c	; 0x1d9c <__prologue_saves__+0x8>
     136:	3c 01       	movw	r6, r24
     138:	cb 01       	movw	r24, r22
     13a:	ea 01       	movw	r28, r20
     13c:	d3 01       	movw	r26, r6
     13e:	2c 91       	ld	r18, X
     140:	22 30       	cpi	r18, 0x02	; 2
     142:	08 f4       	brcc	.+2      	; 0x146 <_fpadd_parts+0x1c>
     144:	3e c1       	rjmp	.+636    	; 0x3c2 <_fpadd_parts+0x298>
     146:	fb 01       	movw	r30, r22
     148:	30 81       	ld	r19, Z
     14a:	32 30       	cpi	r19, 0x02	; 2
     14c:	08 f4       	brcc	.+2      	; 0x150 <_fpadd_parts+0x26>
     14e:	36 c1       	rjmp	.+620    	; 0x3bc <_fpadd_parts+0x292>
     150:	24 30       	cpi	r18, 0x04	; 4
     152:	71 f4       	brne	.+28     	; 0x170 <_fpadd_parts+0x46>
     154:	34 30       	cpi	r19, 0x04	; 4
     156:	09 f0       	breq	.+2      	; 0x15a <_fpadd_parts+0x30>
     158:	34 c1       	rjmp	.+616    	; 0x3c2 <_fpadd_parts+0x298>
     15a:	11 96       	adiw	r26, 0x01	; 1
     15c:	2c 91       	ld	r18, X
     15e:	81 81       	ldd	r24, Z+1	; 0x01
     160:	28 17       	cp	r18, r24
     162:	09 f4       	brne	.+2      	; 0x166 <_fpadd_parts+0x3c>
     164:	2e c1       	rjmp	.+604    	; 0x3c2 <_fpadd_parts+0x298>
     166:	ba e3       	ldi	r27, 0x3A	; 58
     168:	6b 2e       	mov	r6, r27
     16a:	b2 e0       	ldi	r27, 0x02	; 2
     16c:	7b 2e       	mov	r7, r27
     16e:	29 c1       	rjmp	.+594    	; 0x3c2 <_fpadd_parts+0x298>
     170:	34 30       	cpi	r19, 0x04	; 4
     172:	09 f4       	brne	.+2      	; 0x176 <_fpadd_parts+0x4c>
     174:	23 c1       	rjmp	.+582    	; 0x3bc <_fpadd_parts+0x292>
     176:	32 30       	cpi	r19, 0x02	; 2
     178:	91 f4       	brne	.+36     	; 0x19e <_fpadd_parts+0x74>
     17a:	22 30       	cpi	r18, 0x02	; 2
     17c:	09 f0       	breq	.+2      	; 0x180 <_fpadd_parts+0x56>
     17e:	21 c1       	rjmp	.+578    	; 0x3c2 <_fpadd_parts+0x298>
     180:	28 e0       	ldi	r18, 0x08	; 8
     182:	f3 01       	movw	r30, r6
     184:	da 01       	movw	r26, r20
     186:	01 90       	ld	r0, Z+
     188:	0d 92       	st	X+, r0
     18a:	2a 95       	dec	r18
     18c:	e1 f7       	brne	.-8      	; 0x186 <_fpadd_parts+0x5c>
     18e:	db 01       	movw	r26, r22
     190:	11 96       	adiw	r26, 0x01	; 1
     192:	8c 91       	ld	r24, X
     194:	f3 01       	movw	r30, r6
     196:	91 81       	ldd	r25, Z+1	; 0x01
     198:	89 23       	and	r24, r25
     19a:	89 83       	std	Y+1, r24	; 0x01
     19c:	11 c1       	rjmp	.+546    	; 0x3c0 <_fpadd_parts+0x296>
     19e:	22 30       	cpi	r18, 0x02	; 2
     1a0:	09 f4       	brne	.+2      	; 0x1a4 <_fpadd_parts+0x7a>
     1a2:	0c c1       	rjmp	.+536    	; 0x3bc <_fpadd_parts+0x292>
     1a4:	d3 01       	movw	r26, r6
     1a6:	12 96       	adiw	r26, 0x02	; 2
     1a8:	ed 91       	ld	r30, X+
     1aa:	fc 91       	ld	r31, X
     1ac:	13 97       	sbiw	r26, 0x03	; 3
     1ae:	db 01       	movw	r26, r22
     1b0:	12 96       	adiw	r26, 0x02	; 2
     1b2:	6d 91       	ld	r22, X+
     1b4:	7c 91       	ld	r23, X
     1b6:	13 97       	sbiw	r26, 0x03	; 3
     1b8:	d3 01       	movw	r26, r6
     1ba:	14 96       	adiw	r26, 0x04	; 4
     1bc:	0d 91       	ld	r16, X+
     1be:	1d 91       	ld	r17, X+
     1c0:	2d 91       	ld	r18, X+
     1c2:	3c 91       	ld	r19, X
     1c4:	17 97       	sbiw	r26, 0x07	; 7
     1c6:	dc 01       	movw	r26, r24
     1c8:	14 96       	adiw	r26, 0x04	; 4
     1ca:	cd 90       	ld	r12, X+
     1cc:	dd 90       	ld	r13, X+
     1ce:	ed 90       	ld	r14, X+
     1d0:	fc 90       	ld	r15, X
     1d2:	17 97       	sbiw	r26, 0x07	; 7
     1d4:	af 01       	movw	r20, r30
     1d6:	46 1b       	sub	r20, r22
     1d8:	57 0b       	sbc	r21, r23
     1da:	da 01       	movw	r26, r20
     1dc:	57 ff       	sbrs	r21, 7
     1de:	04 c0       	rjmp	.+8      	; 0x1e8 <_fpadd_parts+0xbe>
     1e0:	aa 27       	eor	r26, r26
     1e2:	bb 27       	eor	r27, r27
     1e4:	a4 1b       	sub	r26, r20
     1e6:	b5 0b       	sbc	r27, r21
     1e8:	a0 32       	cpi	r26, 0x20	; 32
     1ea:	b1 05       	cpc	r27, r1
     1ec:	0c f0       	brlt	.+2      	; 0x1f0 <_fpadd_parts+0xc6>
     1ee:	65 c0       	rjmp	.+202    	; 0x2ba <_fpadd_parts+0x190>
     1f0:	14 16       	cp	r1, r20
     1f2:	15 06       	cpc	r1, r21
     1f4:	7c f5       	brge	.+94     	; 0x254 <_fpadd_parts+0x12a>
     1f6:	b7 01       	movw	r22, r14
     1f8:	a6 01       	movw	r20, r12
     1fa:	0a 2e       	mov	r0, r26
     1fc:	04 c0       	rjmp	.+8      	; 0x206 <_fpadd_parts+0xdc>
     1fe:	76 95       	lsr	r23
     200:	67 95       	ror	r22
     202:	57 95       	ror	r21
     204:	47 95       	ror	r20
     206:	0a 94       	dec	r0
     208:	d2 f7       	brpl	.-12     	; 0x1fe <_fpadd_parts+0xd4>
     20a:	81 2c       	mov	r8, r1
     20c:	91 2c       	mov	r9, r1
     20e:	54 01       	movw	r10, r8
     210:	83 94       	inc	r8
     212:	04 c0       	rjmp	.+8      	; 0x21c <_fpadd_parts+0xf2>
     214:	88 0c       	add	r8, r8
     216:	99 1c       	adc	r9, r9
     218:	aa 1c       	adc	r10, r10
     21a:	bb 1c       	adc	r11, r11
     21c:	aa 95       	dec	r26
     21e:	d2 f7       	brpl	.-12     	; 0x214 <_fpadd_parts+0xea>
     220:	b1 e0       	ldi	r27, 0x01	; 1
     222:	8b 1a       	sub	r8, r27
     224:	91 08       	sbc	r9, r1
     226:	a1 08       	sbc	r10, r1
     228:	b1 08       	sbc	r11, r1
     22a:	8c 20       	and	r8, r12
     22c:	9d 20       	and	r9, r13
     22e:	ae 20       	and	r10, r14
     230:	bf 20       	and	r11, r15
     232:	c1 2c       	mov	r12, r1
     234:	d1 2c       	mov	r13, r1
     236:	76 01       	movw	r14, r12
     238:	c3 94       	inc	r12
     23a:	81 14       	cp	r8, r1
     23c:	91 04       	cpc	r9, r1
     23e:	a1 04       	cpc	r10, r1
     240:	b1 04       	cpc	r11, r1
     242:	19 f4       	brne	.+6      	; 0x24a <_fpadd_parts+0x120>
     244:	c1 2c       	mov	r12, r1
     246:	d1 2c       	mov	r13, r1
     248:	76 01       	movw	r14, r12
     24a:	c4 2a       	or	r12, r20
     24c:	d5 2a       	or	r13, r21
     24e:	e6 2a       	or	r14, r22
     250:	f7 2a       	or	r15, r23
     252:	3e c0       	rjmp	.+124    	; 0x2d0 <_fpadd_parts+0x1a6>
     254:	45 2b       	or	r20, r21
     256:	e1 f1       	breq	.+120    	; 0x2d0 <_fpadd_parts+0x1a6>
     258:	ea 0f       	add	r30, r26
     25a:	fb 1f       	adc	r31, r27
     25c:	b9 01       	movw	r22, r18
     25e:	a8 01       	movw	r20, r16
     260:	0a 2e       	mov	r0, r26
     262:	04 c0       	rjmp	.+8      	; 0x26c <_fpadd_parts+0x142>
     264:	76 95       	lsr	r23
     266:	67 95       	ror	r22
     268:	57 95       	ror	r21
     26a:	47 95       	ror	r20
     26c:	0a 94       	dec	r0
     26e:	d2 f7       	brpl	.-12     	; 0x264 <_fpadd_parts+0x13a>
     270:	81 2c       	mov	r8, r1
     272:	91 2c       	mov	r9, r1
     274:	54 01       	movw	r10, r8
     276:	83 94       	inc	r8
     278:	04 c0       	rjmp	.+8      	; 0x282 <_fpadd_parts+0x158>
     27a:	88 0c       	add	r8, r8
     27c:	99 1c       	adc	r9, r9
     27e:	aa 1c       	adc	r10, r10
     280:	bb 1c       	adc	r11, r11
     282:	aa 95       	dec	r26
     284:	d2 f7       	brpl	.-12     	; 0x27a <_fpadd_parts+0x150>
     286:	a1 e0       	ldi	r26, 0x01	; 1
     288:	8a 1a       	sub	r8, r26
     28a:	91 08       	sbc	r9, r1
     28c:	a1 08       	sbc	r10, r1
     28e:	b1 08       	sbc	r11, r1
     290:	80 22       	and	r8, r16
     292:	91 22       	and	r9, r17
     294:	a2 22       	and	r10, r18
     296:	b3 22       	and	r11, r19
     298:	01 e0       	ldi	r16, 0x01	; 1
     29a:	10 e0       	ldi	r17, 0x00	; 0
     29c:	20 e0       	ldi	r18, 0x00	; 0
     29e:	30 e0       	ldi	r19, 0x00	; 0
     2a0:	81 14       	cp	r8, r1
     2a2:	91 04       	cpc	r9, r1
     2a4:	a1 04       	cpc	r10, r1
     2a6:	b1 04       	cpc	r11, r1
     2a8:	19 f4       	brne	.+6      	; 0x2b0 <_fpadd_parts+0x186>
     2aa:	00 e0       	ldi	r16, 0x00	; 0
     2ac:	10 e0       	ldi	r17, 0x00	; 0
     2ae:	98 01       	movw	r18, r16
     2b0:	04 2b       	or	r16, r20
     2b2:	15 2b       	or	r17, r21
     2b4:	26 2b       	or	r18, r22
     2b6:	37 2b       	or	r19, r23
     2b8:	0b c0       	rjmp	.+22     	; 0x2d0 <_fpadd_parts+0x1a6>
     2ba:	6e 17       	cp	r22, r30
     2bc:	7f 07       	cpc	r23, r31
     2be:	24 f4       	brge	.+8      	; 0x2c8 <_fpadd_parts+0x19e>
     2c0:	c1 2c       	mov	r12, r1
     2c2:	d1 2c       	mov	r13, r1
     2c4:	76 01       	movw	r14, r12
     2c6:	04 c0       	rjmp	.+8      	; 0x2d0 <_fpadd_parts+0x1a6>
     2c8:	fb 01       	movw	r30, r22
     2ca:	00 e0       	ldi	r16, 0x00	; 0
     2cc:	10 e0       	ldi	r17, 0x00	; 0
     2ce:	98 01       	movw	r18, r16
     2d0:	d3 01       	movw	r26, r6
     2d2:	11 96       	adiw	r26, 0x01	; 1
     2d4:	4c 91       	ld	r20, X
     2d6:	dc 01       	movw	r26, r24
     2d8:	11 96       	adiw	r26, 0x01	; 1
     2da:	8c 91       	ld	r24, X
     2dc:	48 17       	cp	r20, r24
     2de:	09 f4       	brne	.+2      	; 0x2e2 <_fpadd_parts+0x1b8>
     2e0:	42 c0       	rjmp	.+132    	; 0x366 <_fpadd_parts+0x23c>
     2e2:	44 23       	and	r20, r20
     2e4:	49 f0       	breq	.+18     	; 0x2f8 <_fpadd_parts+0x1ce>
     2e6:	d7 01       	movw	r26, r14
     2e8:	c6 01       	movw	r24, r12
     2ea:	80 1b       	sub	r24, r16
     2ec:	91 0b       	sbc	r25, r17
     2ee:	a2 0b       	sbc	r26, r18
     2f0:	b3 0b       	sbc	r27, r19
     2f2:	8c 01       	movw	r16, r24
     2f4:	9d 01       	movw	r18, r26
     2f6:	04 c0       	rjmp	.+8      	; 0x300 <_fpadd_parts+0x1d6>
     2f8:	0c 19       	sub	r16, r12
     2fa:	1d 09       	sbc	r17, r13
     2fc:	2e 09       	sbc	r18, r14
     2fe:	3f 09       	sbc	r19, r15
     300:	37 fd       	sbrc	r19, 7
     302:	04 c0       	rjmp	.+8      	; 0x30c <_fpadd_parts+0x1e2>
     304:	19 82       	std	Y+1, r1	; 0x01
     306:	fb 83       	std	Y+3, r31	; 0x03
     308:	ea 83       	std	Y+2, r30	; 0x02
     30a:	0b c0       	rjmp	.+22     	; 0x322 <_fpadd_parts+0x1f8>
     30c:	81 e0       	ldi	r24, 0x01	; 1
     30e:	89 83       	std	Y+1, r24	; 0x01
     310:	fb 83       	std	Y+3, r31	; 0x03
     312:	ea 83       	std	Y+2, r30	; 0x02
     314:	30 95       	com	r19
     316:	20 95       	com	r18
     318:	10 95       	com	r17
     31a:	01 95       	neg	r16
     31c:	1f 4f       	sbci	r17, 0xFF	; 255
     31e:	2f 4f       	sbci	r18, 0xFF	; 255
     320:	3f 4f       	sbci	r19, 0xFF	; 255
     322:	0c 83       	std	Y+4, r16	; 0x04
     324:	1d 83       	std	Y+5, r17	; 0x05
     326:	2e 83       	std	Y+6, r18	; 0x06
     328:	3f 83       	std	Y+7, r19	; 0x07
     32a:	0d c0       	rjmp	.+26     	; 0x346 <_fpadd_parts+0x21c>
     32c:	88 0f       	add	r24, r24
     32e:	99 1f       	adc	r25, r25
     330:	aa 1f       	adc	r26, r26
     332:	bb 1f       	adc	r27, r27
     334:	8c 83       	std	Y+4, r24	; 0x04
     336:	9d 83       	std	Y+5, r25	; 0x05
     338:	ae 83       	std	Y+6, r26	; 0x06
     33a:	bf 83       	std	Y+7, r27	; 0x07
     33c:	8a 81       	ldd	r24, Y+2	; 0x02
     33e:	9b 81       	ldd	r25, Y+3	; 0x03
     340:	01 97       	sbiw	r24, 0x01	; 1
     342:	9b 83       	std	Y+3, r25	; 0x03
     344:	8a 83       	std	Y+2, r24	; 0x02
     346:	8c 81       	ldd	r24, Y+4	; 0x04
     348:	9d 81       	ldd	r25, Y+5	; 0x05
     34a:	ae 81       	ldd	r26, Y+6	; 0x06
     34c:	bf 81       	ldd	r27, Y+7	; 0x07
     34e:	8c 01       	movw	r16, r24
     350:	9d 01       	movw	r18, r26
     352:	01 50       	subi	r16, 0x01	; 1
     354:	11 09       	sbc	r17, r1
     356:	21 09       	sbc	r18, r1
     358:	31 09       	sbc	r19, r1
     35a:	0f 3f       	cpi	r16, 0xFF	; 255
     35c:	1f 4f       	sbci	r17, 0xFF	; 255
     35e:	2f 4f       	sbci	r18, 0xFF	; 255
     360:	3f 43       	sbci	r19, 0x3F	; 63
     362:	20 f3       	brcs	.-56     	; 0x32c <_fpadd_parts+0x202>
     364:	0b c0       	rjmp	.+22     	; 0x37c <_fpadd_parts+0x252>
     366:	49 83       	std	Y+1, r20	; 0x01
     368:	fb 83       	std	Y+3, r31	; 0x03
     36a:	ea 83       	std	Y+2, r30	; 0x02
     36c:	0c 0d       	add	r16, r12
     36e:	1d 1d       	adc	r17, r13
     370:	2e 1d       	adc	r18, r14
     372:	3f 1d       	adc	r19, r15
     374:	0c 83       	std	Y+4, r16	; 0x04
     376:	1d 83       	std	Y+5, r17	; 0x05
     378:	2e 83       	std	Y+6, r18	; 0x06
     37a:	3f 83       	std	Y+7, r19	; 0x07
     37c:	83 e0       	ldi	r24, 0x03	; 3
     37e:	88 83       	st	Y, r24
     380:	0c 81       	ldd	r16, Y+4	; 0x04
     382:	1d 81       	ldd	r17, Y+5	; 0x05
     384:	2e 81       	ldd	r18, Y+6	; 0x06
     386:	3f 81       	ldd	r19, Y+7	; 0x07
     388:	37 ff       	sbrs	r19, 7
     38a:	1a c0       	rjmp	.+52     	; 0x3c0 <_fpadd_parts+0x296>
     38c:	d9 01       	movw	r26, r18
     38e:	c8 01       	movw	r24, r16
     390:	81 70       	andi	r24, 0x01	; 1
     392:	99 27       	eor	r25, r25
     394:	aa 27       	eor	r26, r26
     396:	bb 27       	eor	r27, r27
     398:	36 95       	lsr	r19
     39a:	27 95       	ror	r18
     39c:	17 95       	ror	r17
     39e:	07 95       	ror	r16
     3a0:	80 2b       	or	r24, r16
     3a2:	91 2b       	or	r25, r17
     3a4:	a2 2b       	or	r26, r18
     3a6:	b3 2b       	or	r27, r19
     3a8:	8c 83       	std	Y+4, r24	; 0x04
     3aa:	9d 83       	std	Y+5, r25	; 0x05
     3ac:	ae 83       	std	Y+6, r26	; 0x06
     3ae:	bf 83       	std	Y+7, r27	; 0x07
     3b0:	8a 81       	ldd	r24, Y+2	; 0x02
     3b2:	9b 81       	ldd	r25, Y+3	; 0x03
     3b4:	01 96       	adiw	r24, 0x01	; 1
     3b6:	9b 83       	std	Y+3, r25	; 0x03
     3b8:	8a 83       	std	Y+2, r24	; 0x02
     3ba:	02 c0       	rjmp	.+4      	; 0x3c0 <_fpadd_parts+0x296>
     3bc:	3c 01       	movw	r6, r24
     3be:	01 c0       	rjmp	.+2      	; 0x3c2 <_fpadd_parts+0x298>
     3c0:	3e 01       	movw	r6, r28
     3c2:	c3 01       	movw	r24, r6
     3c4:	cd b7       	in	r28, 0x3d	; 61
     3c6:	de b7       	in	r29, 0x3e	; 62
     3c8:	ee e0       	ldi	r30, 0x0E	; 14
     3ca:	0c 94 ea 0e 	jmp	0x1dd4	; 0x1dd4 <__epilogue_restores__+0x8>

000003ce <__addsf3>:
     3ce:	a0 e2       	ldi	r26, 0x20	; 32
     3d0:	b0 e0       	ldi	r27, 0x00	; 0
     3d2:	ed ee       	ldi	r30, 0xED	; 237
     3d4:	f1 e0       	ldi	r31, 0x01	; 1
     3d6:	0c 94 da 0e 	jmp	0x1db4	; 0x1db4 <__prologue_saves__+0x20>
     3da:	6d 8f       	std	Y+29, r22	; 0x1d
     3dc:	7e 8f       	std	Y+30, r23	; 0x1e
     3de:	8f 8f       	std	Y+31, r24	; 0x1f
     3e0:	98 a3       	std	Y+32, r25	; 0x20
     3e2:	29 8f       	std	Y+25, r18	; 0x19
     3e4:	3a 8f       	std	Y+26, r19	; 0x1a
     3e6:	4b 8f       	std	Y+27, r20	; 0x1b
     3e8:	5c 8f       	std	Y+28, r21	; 0x1c
     3ea:	be 01       	movw	r22, r28
     3ec:	6f 5e       	subi	r22, 0xEF	; 239
     3ee:	7f 4f       	sbci	r23, 0xFF	; 255
     3f0:	ce 01       	movw	r24, r28
     3f2:	4d 96       	adiw	r24, 0x1d	; 29
     3f4:	0e 94 8c 04 	call	0x918	; 0x918 <__unpack_f>
     3f8:	be 01       	movw	r22, r28
     3fa:	67 5f       	subi	r22, 0xF7	; 247
     3fc:	7f 4f       	sbci	r23, 0xFF	; 255
     3fe:	ce 01       	movw	r24, r28
     400:	49 96       	adiw	r24, 0x19	; 25
     402:	0e 94 8c 04 	call	0x918	; 0x918 <__unpack_f>
     406:	ae 01       	movw	r20, r28
     408:	4f 5f       	subi	r20, 0xFF	; 255
     40a:	5f 4f       	sbci	r21, 0xFF	; 255
     40c:	be 01       	movw	r22, r28
     40e:	67 5f       	subi	r22, 0xF7	; 247
     410:	7f 4f       	sbci	r23, 0xFF	; 255
     412:	ce 01       	movw	r24, r28
     414:	41 96       	adiw	r24, 0x11	; 17
     416:	0e 94 95 00 	call	0x12a	; 0x12a <_fpadd_parts>
     41a:	0e 94 cb 03 	call	0x796	; 0x796 <__pack_f>
     41e:	a0 96       	adiw	r28, 0x20	; 32
     420:	e2 e0       	ldi	r30, 0x02	; 2
     422:	0c 94 f6 0e 	jmp	0x1dec	; 0x1dec <__epilogue_restores__+0x20>

00000426 <__subsf3>:
     426:	a0 e2       	ldi	r26, 0x20	; 32
     428:	b0 e0       	ldi	r27, 0x00	; 0
     42a:	e9 e1       	ldi	r30, 0x19	; 25
     42c:	f2 e0       	ldi	r31, 0x02	; 2
     42e:	0c 94 da 0e 	jmp	0x1db4	; 0x1db4 <__prologue_saves__+0x20>
     432:	6d 8f       	std	Y+29, r22	; 0x1d
     434:	7e 8f       	std	Y+30, r23	; 0x1e
     436:	8f 8f       	std	Y+31, r24	; 0x1f
     438:	98 a3       	std	Y+32, r25	; 0x20
     43a:	29 8f       	std	Y+25, r18	; 0x19
     43c:	3a 8f       	std	Y+26, r19	; 0x1a
     43e:	4b 8f       	std	Y+27, r20	; 0x1b
     440:	5c 8f       	std	Y+28, r21	; 0x1c
     442:	be 01       	movw	r22, r28
     444:	6f 5e       	subi	r22, 0xEF	; 239
     446:	7f 4f       	sbci	r23, 0xFF	; 255
     448:	ce 01       	movw	r24, r28
     44a:	4d 96       	adiw	r24, 0x1d	; 29
     44c:	0e 94 8c 04 	call	0x918	; 0x918 <__unpack_f>
     450:	be 01       	movw	r22, r28
     452:	67 5f       	subi	r22, 0xF7	; 247
     454:	7f 4f       	sbci	r23, 0xFF	; 255
     456:	ce 01       	movw	r24, r28
     458:	49 96       	adiw	r24, 0x19	; 25
     45a:	0e 94 8c 04 	call	0x918	; 0x918 <__unpack_f>
     45e:	8a 85       	ldd	r24, Y+10	; 0x0a
     460:	91 e0       	ldi	r25, 0x01	; 1
     462:	89 27       	eor	r24, r25
     464:	8a 87       	std	Y+10, r24	; 0x0a
     466:	ae 01       	movw	r20, r28
     468:	4f 5f       	subi	r20, 0xFF	; 255
     46a:	5f 4f       	sbci	r21, 0xFF	; 255
     46c:	be 01       	movw	r22, r28
     46e:	67 5f       	subi	r22, 0xF7	; 247
     470:	7f 4f       	sbci	r23, 0xFF	; 255
     472:	ce 01       	movw	r24, r28
     474:	41 96       	adiw	r24, 0x11	; 17
     476:	0e 94 95 00 	call	0x12a	; 0x12a <_fpadd_parts>
     47a:	0e 94 cb 03 	call	0x796	; 0x796 <__pack_f>
     47e:	a0 96       	adiw	r28, 0x20	; 32
     480:	e2 e0       	ldi	r30, 0x02	; 2
     482:	0c 94 f6 0e 	jmp	0x1dec	; 0x1dec <__epilogue_restores__+0x20>

00000486 <__mulsf3>:
     486:	a0 e2       	ldi	r26, 0x20	; 32
     488:	b0 e0       	ldi	r27, 0x00	; 0
     48a:	e9 e4       	ldi	r30, 0x49	; 73
     48c:	f2 e0       	ldi	r31, 0x02	; 2
     48e:	0c 94 cc 0e 	jmp	0x1d98	; 0x1d98 <__prologue_saves__+0x4>
     492:	6d 8f       	std	Y+29, r22	; 0x1d
     494:	7e 8f       	std	Y+30, r23	; 0x1e
     496:	8f 8f       	std	Y+31, r24	; 0x1f
     498:	98 a3       	std	Y+32, r25	; 0x20
     49a:	29 8f       	std	Y+25, r18	; 0x19
     49c:	3a 8f       	std	Y+26, r19	; 0x1a
     49e:	4b 8f       	std	Y+27, r20	; 0x1b
     4a0:	5c 8f       	std	Y+28, r21	; 0x1c
     4a2:	be 01       	movw	r22, r28
     4a4:	6f 5e       	subi	r22, 0xEF	; 239
     4a6:	7f 4f       	sbci	r23, 0xFF	; 255
     4a8:	ce 01       	movw	r24, r28
     4aa:	4d 96       	adiw	r24, 0x1d	; 29
     4ac:	0e 94 8c 04 	call	0x918	; 0x918 <__unpack_f>
     4b0:	be 01       	movw	r22, r28
     4b2:	67 5f       	subi	r22, 0xF7	; 247
     4b4:	7f 4f       	sbci	r23, 0xFF	; 255
     4b6:	ce 01       	movw	r24, r28
     4b8:	49 96       	adiw	r24, 0x19	; 25
     4ba:	0e 94 8c 04 	call	0x918	; 0x918 <__unpack_f>
     4be:	99 89       	ldd	r25, Y+17	; 0x11
     4c0:	92 30       	cpi	r25, 0x02	; 2
     4c2:	08 f4       	brcc	.+2      	; 0x4c6 <__mulsf3+0x40>
     4c4:	12 c0       	rjmp	.+36     	; 0x4ea <__mulsf3+0x64>
     4c6:	89 85       	ldd	r24, Y+9	; 0x09
     4c8:	82 30       	cpi	r24, 0x02	; 2
     4ca:	08 f4       	brcc	.+2      	; 0x4ce <__mulsf3+0x48>
     4cc:	1a c0       	rjmp	.+52     	; 0x502 <__mulsf3+0x7c>
     4ce:	94 30       	cpi	r25, 0x04	; 4
     4d0:	21 f4       	brne	.+8      	; 0x4da <__mulsf3+0x54>
     4d2:	82 30       	cpi	r24, 0x02	; 2
     4d4:	09 f4       	brne	.+2      	; 0x4d8 <__mulsf3+0x52>
     4d6:	b4 c0       	rjmp	.+360    	; 0x640 <__mulsf3+0x1ba>
     4d8:	08 c0       	rjmp	.+16     	; 0x4ea <__mulsf3+0x64>
     4da:	84 30       	cpi	r24, 0x04	; 4
     4dc:	21 f4       	brne	.+8      	; 0x4e6 <__mulsf3+0x60>
     4de:	92 30       	cpi	r25, 0x02	; 2
     4e0:	09 f4       	brne	.+2      	; 0x4e4 <__mulsf3+0x5e>
     4e2:	ae c0       	rjmp	.+348    	; 0x640 <__mulsf3+0x1ba>
     4e4:	0e c0       	rjmp	.+28     	; 0x502 <__mulsf3+0x7c>
     4e6:	92 30       	cpi	r25, 0x02	; 2
     4e8:	51 f4       	brne	.+20     	; 0x4fe <__mulsf3+0x78>
     4ea:	81 e0       	ldi	r24, 0x01	; 1
     4ec:	2a 89       	ldd	r18, Y+18	; 0x12
     4ee:	9a 85       	ldd	r25, Y+10	; 0x0a
     4f0:	29 13       	cpse	r18, r25
     4f2:	01 c0       	rjmp	.+2      	; 0x4f6 <__mulsf3+0x70>
     4f4:	80 e0       	ldi	r24, 0x00	; 0
     4f6:	8a 8b       	std	Y+18, r24	; 0x12
     4f8:	ce 01       	movw	r24, r28
     4fa:	41 96       	adiw	r24, 0x11	; 17
     4fc:	a3 c0       	rjmp	.+326    	; 0x644 <__mulsf3+0x1be>
     4fe:	82 30       	cpi	r24, 0x02	; 2
     500:	51 f4       	brne	.+20     	; 0x516 <__mulsf3+0x90>
     502:	81 e0       	ldi	r24, 0x01	; 1
     504:	2a 89       	ldd	r18, Y+18	; 0x12
     506:	9a 85       	ldd	r25, Y+10	; 0x0a
     508:	29 13       	cpse	r18, r25
     50a:	01 c0       	rjmp	.+2      	; 0x50e <__mulsf3+0x88>
     50c:	80 e0       	ldi	r24, 0x00	; 0
     50e:	8a 87       	std	Y+10, r24	; 0x0a
     510:	ce 01       	movw	r24, r28
     512:	09 96       	adiw	r24, 0x09	; 9
     514:	97 c0       	rjmp	.+302    	; 0x644 <__mulsf3+0x1be>
     516:	8d 88       	ldd	r8, Y+21	; 0x15
     518:	9e 88       	ldd	r9, Y+22	; 0x16
     51a:	af 88       	ldd	r10, Y+23	; 0x17
     51c:	b8 8c       	ldd	r11, Y+24	; 0x18
     51e:	0d 85       	ldd	r16, Y+13	; 0x0d
     520:	1e 85       	ldd	r17, Y+14	; 0x0e
     522:	2f 85       	ldd	r18, Y+15	; 0x0f
     524:	38 89       	ldd	r19, Y+16	; 0x10
     526:	e0 e2       	ldi	r30, 0x20	; 32
     528:	f0 e0       	ldi	r31, 0x00	; 0
     52a:	80 e0       	ldi	r24, 0x00	; 0
     52c:	90 e0       	ldi	r25, 0x00	; 0
     52e:	dc 01       	movw	r26, r24
     530:	c1 2c       	mov	r12, r1
     532:	d1 2c       	mov	r13, r1
     534:	76 01       	movw	r14, r12
     536:	40 e0       	ldi	r20, 0x00	; 0
     538:	50 e0       	ldi	r21, 0x00	; 0
     53a:	ba 01       	movw	r22, r20
     53c:	80 fe       	sbrs	r8, 0
     53e:	18 c0       	rjmp	.+48     	; 0x570 <__mulsf3+0xea>
     540:	40 0f       	add	r20, r16
     542:	51 1f       	adc	r21, r17
     544:	62 1f       	adc	r22, r18
     546:	73 1f       	adc	r23, r19
     548:	8c 0d       	add	r24, r12
     54a:	9d 1d       	adc	r25, r13
     54c:	ae 1d       	adc	r26, r14
     54e:	bf 1d       	adc	r27, r15
     550:	41 2c       	mov	r4, r1
     552:	51 2c       	mov	r5, r1
     554:	32 01       	movw	r6, r4
     556:	43 94       	inc	r4
     558:	40 17       	cp	r20, r16
     55a:	51 07       	cpc	r21, r17
     55c:	62 07       	cpc	r22, r18
     55e:	73 07       	cpc	r23, r19
     560:	18 f0       	brcs	.+6      	; 0x568 <__mulsf3+0xe2>
     562:	41 2c       	mov	r4, r1
     564:	51 2c       	mov	r5, r1
     566:	32 01       	movw	r6, r4
     568:	84 0d       	add	r24, r4
     56a:	95 1d       	adc	r25, r5
     56c:	a6 1d       	adc	r26, r6
     56e:	b7 1d       	adc	r27, r7
     570:	cc 0c       	add	r12, r12
     572:	dd 1c       	adc	r13, r13
     574:	ee 1c       	adc	r14, r14
     576:	ff 1c       	adc	r15, r15
     578:	37 ff       	sbrs	r19, 7
     57a:	02 c0       	rjmp	.+4      	; 0x580 <__mulsf3+0xfa>
     57c:	68 94       	set
     57e:	c0 f8       	bld	r12, 0
     580:	00 0f       	add	r16, r16
     582:	11 1f       	adc	r17, r17
     584:	22 1f       	adc	r18, r18
     586:	33 1f       	adc	r19, r19
     588:	b6 94       	lsr	r11
     58a:	a7 94       	ror	r10
     58c:	97 94       	ror	r9
     58e:	87 94       	ror	r8
     590:	31 97       	sbiw	r30, 0x01	; 1
     592:	a1 f6       	brne	.-88     	; 0x53c <__mulsf3+0xb6>
     594:	2b 89       	ldd	r18, Y+19	; 0x13
     596:	3c 89       	ldd	r19, Y+20	; 0x14
     598:	eb 85       	ldd	r30, Y+11	; 0x0b
     59a:	fc 85       	ldd	r31, Y+12	; 0x0c
     59c:	2e 0f       	add	r18, r30
     59e:	3f 1f       	adc	r19, r31
     5a0:	2e 5f       	subi	r18, 0xFE	; 254
     5a2:	3f 4f       	sbci	r19, 0xFF	; 255
     5a4:	3c 83       	std	Y+4, r19	; 0x04
     5a6:	2b 83       	std	Y+3, r18	; 0x03
     5a8:	21 e0       	ldi	r18, 0x01	; 1
     5aa:	ea 89       	ldd	r30, Y+18	; 0x12
     5ac:	3a 85       	ldd	r19, Y+10	; 0x0a
     5ae:	e3 13       	cpse	r30, r19
     5b0:	01 c0       	rjmp	.+2      	; 0x5b4 <__mulsf3+0x12e>
     5b2:	20 e0       	ldi	r18, 0x00	; 0
     5b4:	2a 83       	std	Y+2, r18	; 0x02
     5b6:	eb 81       	ldd	r30, Y+3	; 0x03
     5b8:	fc 81       	ldd	r31, Y+4	; 0x04
     5ba:	0c c0       	rjmp	.+24     	; 0x5d4 <__mulsf3+0x14e>
     5bc:	80 ff       	sbrs	r24, 0
     5be:	05 c0       	rjmp	.+10     	; 0x5ca <__mulsf3+0x144>
     5c0:	76 95       	lsr	r23
     5c2:	67 95       	ror	r22
     5c4:	57 95       	ror	r21
     5c6:	47 95       	ror	r20
     5c8:	70 68       	ori	r23, 0x80	; 128
     5ca:	b6 95       	lsr	r27
     5cc:	a7 95       	ror	r26
     5ce:	97 95       	ror	r25
     5d0:	87 95       	ror	r24
     5d2:	31 96       	adiw	r30, 0x01	; 1
     5d4:	b7 fd       	sbrc	r27, 7
     5d6:	f2 cf       	rjmp	.-28     	; 0x5bc <__mulsf3+0x136>
     5d8:	9f 01       	movw	r18, r30
     5da:	0c c0       	rjmp	.+24     	; 0x5f4 <__mulsf3+0x16e>
     5dc:	88 0f       	add	r24, r24
     5de:	99 1f       	adc	r25, r25
     5e0:	aa 1f       	adc	r26, r26
     5e2:	bb 1f       	adc	r27, r27
     5e4:	77 fd       	sbrc	r23, 7
     5e6:	81 60       	ori	r24, 0x01	; 1
     5e8:	44 0f       	add	r20, r20
     5ea:	55 1f       	adc	r21, r21
     5ec:	66 1f       	adc	r22, r22
     5ee:	77 1f       	adc	r23, r23
     5f0:	21 50       	subi	r18, 0x01	; 1
     5f2:	31 09       	sbc	r19, r1
     5f4:	00 97       	sbiw	r24, 0x00	; 0
     5f6:	a1 05       	cpc	r26, r1
     5f8:	e0 e4       	ldi	r30, 0x40	; 64
     5fa:	be 07       	cpc	r27, r30
     5fc:	78 f3       	brcs	.-34     	; 0x5dc <__mulsf3+0x156>
     5fe:	2b 83       	std	Y+3, r18	; 0x03
     600:	3c 83       	std	Y+4, r19	; 0x04
     602:	8c 01       	movw	r16, r24
     604:	9d 01       	movw	r18, r26
     606:	0f 77       	andi	r16, 0x7F	; 127
     608:	11 27       	eor	r17, r17
     60a:	22 27       	eor	r18, r18
     60c:	33 27       	eor	r19, r19
     60e:	00 34       	cpi	r16, 0x40	; 64
     610:	11 05       	cpc	r17, r1
     612:	21 05       	cpc	r18, r1
     614:	31 05       	cpc	r19, r1
     616:	59 f4       	brne	.+22     	; 0x62e <__mulsf3+0x1a8>
     618:	87 fd       	sbrc	r24, 7
     61a:	09 c0       	rjmp	.+18     	; 0x62e <__mulsf3+0x1a8>
     61c:	45 2b       	or	r20, r21
     61e:	46 2b       	or	r20, r22
     620:	47 2b       	or	r20, r23
     622:	29 f0       	breq	.+10     	; 0x62e <__mulsf3+0x1a8>
     624:	80 5c       	subi	r24, 0xC0	; 192
     626:	9f 4f       	sbci	r25, 0xFF	; 255
     628:	af 4f       	sbci	r26, 0xFF	; 255
     62a:	bf 4f       	sbci	r27, 0xFF	; 255
     62c:	80 78       	andi	r24, 0x80	; 128
     62e:	8d 83       	std	Y+5, r24	; 0x05
     630:	9e 83       	std	Y+6, r25	; 0x06
     632:	af 83       	std	Y+7, r26	; 0x07
     634:	b8 87       	std	Y+8, r27	; 0x08
     636:	83 e0       	ldi	r24, 0x03	; 3
     638:	89 83       	std	Y+1, r24	; 0x01
     63a:	ce 01       	movw	r24, r28
     63c:	01 96       	adiw	r24, 0x01	; 1
     63e:	02 c0       	rjmp	.+4      	; 0x644 <__mulsf3+0x1be>
     640:	8a e3       	ldi	r24, 0x3A	; 58
     642:	92 e0       	ldi	r25, 0x02	; 2
     644:	0e 94 cb 03 	call	0x796	; 0x796 <__pack_f>
     648:	a0 96       	adiw	r28, 0x20	; 32
     64a:	e0 e1       	ldi	r30, 0x10	; 16
     64c:	0c 94 e8 0e 	jmp	0x1dd0	; 0x1dd0 <__epilogue_restores__+0x4>

00000650 <__divsf3>:
     650:	a8 e1       	ldi	r26, 0x18	; 24
     652:	b0 e0       	ldi	r27, 0x00	; 0
     654:	ee e2       	ldi	r30, 0x2E	; 46
     656:	f3 e0       	ldi	r31, 0x03	; 3
     658:	0c 94 d4 0e 	jmp	0x1da8	; 0x1da8 <__prologue_saves__+0x14>
     65c:	6d 8b       	std	Y+21, r22	; 0x15
     65e:	7e 8b       	std	Y+22, r23	; 0x16
     660:	8f 8b       	std	Y+23, r24	; 0x17
     662:	98 8f       	std	Y+24, r25	; 0x18
     664:	29 8b       	std	Y+17, r18	; 0x11
     666:	3a 8b       	std	Y+18, r19	; 0x12
     668:	4b 8b       	std	Y+19, r20	; 0x13
     66a:	5c 8b       	std	Y+20, r21	; 0x14
     66c:	be 01       	movw	r22, r28
     66e:	67 5f       	subi	r22, 0xF7	; 247
     670:	7f 4f       	sbci	r23, 0xFF	; 255
     672:	ce 01       	movw	r24, r28
     674:	45 96       	adiw	r24, 0x15	; 21
     676:	0e 94 8c 04 	call	0x918	; 0x918 <__unpack_f>
     67a:	be 01       	movw	r22, r28
     67c:	6f 5f       	subi	r22, 0xFF	; 255
     67e:	7f 4f       	sbci	r23, 0xFF	; 255
     680:	ce 01       	movw	r24, r28
     682:	41 96       	adiw	r24, 0x11	; 17
     684:	0e 94 8c 04 	call	0x918	; 0x918 <__unpack_f>
     688:	99 85       	ldd	r25, Y+9	; 0x09
     68a:	92 30       	cpi	r25, 0x02	; 2
     68c:	08 f4       	brcc	.+2      	; 0x690 <__divsf3+0x40>
     68e:	75 c0       	rjmp	.+234    	; 0x77a <__divsf3+0x12a>
     690:	89 81       	ldd	r24, Y+1	; 0x01
     692:	82 30       	cpi	r24, 0x02	; 2
     694:	08 f4       	brcc	.+2      	; 0x698 <__divsf3+0x48>
     696:	74 c0       	rjmp	.+232    	; 0x780 <__divsf3+0x130>
     698:	2a 85       	ldd	r18, Y+10	; 0x0a
     69a:	3a 81       	ldd	r19, Y+2	; 0x02
     69c:	23 27       	eor	r18, r19
     69e:	2a 87       	std	Y+10, r18	; 0x0a
     6a0:	94 30       	cpi	r25, 0x04	; 4
     6a2:	11 f0       	breq	.+4      	; 0x6a8 <__divsf3+0x58>
     6a4:	92 30       	cpi	r25, 0x02	; 2
     6a6:	19 f4       	brne	.+6      	; 0x6ae <__divsf3+0x5e>
     6a8:	98 13       	cpse	r25, r24
     6aa:	67 c0       	rjmp	.+206    	; 0x77a <__divsf3+0x12a>
     6ac:	6c c0       	rjmp	.+216    	; 0x786 <__divsf3+0x136>
     6ae:	84 30       	cpi	r24, 0x04	; 4
     6b0:	39 f4       	brne	.+14     	; 0x6c0 <__divsf3+0x70>
     6b2:	1d 86       	std	Y+13, r1	; 0x0d
     6b4:	1e 86       	std	Y+14, r1	; 0x0e
     6b6:	1f 86       	std	Y+15, r1	; 0x0f
     6b8:	18 8a       	std	Y+16, r1	; 0x10
     6ba:	1c 86       	std	Y+12, r1	; 0x0c
     6bc:	1b 86       	std	Y+11, r1	; 0x0b
     6be:	04 c0       	rjmp	.+8      	; 0x6c8 <__divsf3+0x78>
     6c0:	82 30       	cpi	r24, 0x02	; 2
     6c2:	29 f4       	brne	.+10     	; 0x6ce <__divsf3+0x7e>
     6c4:	84 e0       	ldi	r24, 0x04	; 4
     6c6:	89 87       	std	Y+9, r24	; 0x09
     6c8:	ce 01       	movw	r24, r28
     6ca:	09 96       	adiw	r24, 0x09	; 9
     6cc:	5e c0       	rjmp	.+188    	; 0x78a <__divsf3+0x13a>
     6ce:	8b 85       	ldd	r24, Y+11	; 0x0b
     6d0:	9c 85       	ldd	r25, Y+12	; 0x0c
     6d2:	2b 81       	ldd	r18, Y+3	; 0x03
     6d4:	3c 81       	ldd	r19, Y+4	; 0x04
     6d6:	82 1b       	sub	r24, r18
     6d8:	93 0b       	sbc	r25, r19
     6da:	9c 87       	std	Y+12, r25	; 0x0c
     6dc:	8b 87       	std	Y+11, r24	; 0x0b
     6de:	4d 85       	ldd	r20, Y+13	; 0x0d
     6e0:	5e 85       	ldd	r21, Y+14	; 0x0e
     6e2:	6f 85       	ldd	r22, Y+15	; 0x0f
     6e4:	78 89       	ldd	r23, Y+16	; 0x10
     6e6:	cd 80       	ldd	r12, Y+5	; 0x05
     6e8:	de 80       	ldd	r13, Y+6	; 0x06
     6ea:	ef 80       	ldd	r14, Y+7	; 0x07
     6ec:	f8 84       	ldd	r15, Y+8	; 0x08
     6ee:	4c 15       	cp	r20, r12
     6f0:	5d 05       	cpc	r21, r13
     6f2:	6e 05       	cpc	r22, r14
     6f4:	7f 05       	cpc	r23, r15
     6f6:	38 f4       	brcc	.+14     	; 0x706 <__divsf3+0xb6>
     6f8:	44 0f       	add	r20, r20
     6fa:	55 1f       	adc	r21, r21
     6fc:	66 1f       	adc	r22, r22
     6fe:	77 1f       	adc	r23, r23
     700:	01 97       	sbiw	r24, 0x01	; 1
     702:	9c 87       	std	Y+12, r25	; 0x0c
     704:	8b 87       	std	Y+11, r24	; 0x0b
     706:	ef e1       	ldi	r30, 0x1F	; 31
     708:	f0 e0       	ldi	r31, 0x00	; 0
     70a:	00 e0       	ldi	r16, 0x00	; 0
     70c:	10 e0       	ldi	r17, 0x00	; 0
     70e:	20 e0       	ldi	r18, 0x00	; 0
     710:	30 e4       	ldi	r19, 0x40	; 64
     712:	80 e0       	ldi	r24, 0x00	; 0
     714:	90 e0       	ldi	r25, 0x00	; 0
     716:	dc 01       	movw	r26, r24
     718:	4c 15       	cp	r20, r12
     71a:	5d 05       	cpc	r21, r13
     71c:	6e 05       	cpc	r22, r14
     71e:	7f 05       	cpc	r23, r15
     720:	40 f0       	brcs	.+16     	; 0x732 <__divsf3+0xe2>
     722:	80 2b       	or	r24, r16
     724:	91 2b       	or	r25, r17
     726:	a2 2b       	or	r26, r18
     728:	b3 2b       	or	r27, r19
     72a:	4c 19       	sub	r20, r12
     72c:	5d 09       	sbc	r21, r13
     72e:	6e 09       	sbc	r22, r14
     730:	7f 09       	sbc	r23, r15
     732:	36 95       	lsr	r19
     734:	27 95       	ror	r18
     736:	17 95       	ror	r17
     738:	07 95       	ror	r16
     73a:	44 0f       	add	r20, r20
     73c:	55 1f       	adc	r21, r21
     73e:	66 1f       	adc	r22, r22
     740:	77 1f       	adc	r23, r23
     742:	31 97       	sbiw	r30, 0x01	; 1
     744:	49 f7       	brne	.-46     	; 0x718 <__divsf3+0xc8>
     746:	8c 01       	movw	r16, r24
     748:	9d 01       	movw	r18, r26
     74a:	0f 77       	andi	r16, 0x7F	; 127
     74c:	11 27       	eor	r17, r17
     74e:	22 27       	eor	r18, r18
     750:	33 27       	eor	r19, r19
     752:	00 34       	cpi	r16, 0x40	; 64
     754:	11 05       	cpc	r17, r1
     756:	21 05       	cpc	r18, r1
     758:	31 05       	cpc	r19, r1
     75a:	59 f4       	brne	.+22     	; 0x772 <__divsf3+0x122>
     75c:	87 fd       	sbrc	r24, 7
     75e:	09 c0       	rjmp	.+18     	; 0x772 <__divsf3+0x122>
     760:	45 2b       	or	r20, r21
     762:	46 2b       	or	r20, r22
     764:	47 2b       	or	r20, r23
     766:	29 f0       	breq	.+10     	; 0x772 <__divsf3+0x122>
     768:	80 5c       	subi	r24, 0xC0	; 192
     76a:	9f 4f       	sbci	r25, 0xFF	; 255
     76c:	af 4f       	sbci	r26, 0xFF	; 255
     76e:	bf 4f       	sbci	r27, 0xFF	; 255
     770:	80 78       	andi	r24, 0x80	; 128
     772:	8d 87       	std	Y+13, r24	; 0x0d
     774:	9e 87       	std	Y+14, r25	; 0x0e
     776:	af 87       	std	Y+15, r26	; 0x0f
     778:	b8 8b       	std	Y+16, r27	; 0x10
     77a:	ce 01       	movw	r24, r28
     77c:	09 96       	adiw	r24, 0x09	; 9
     77e:	05 c0       	rjmp	.+10     	; 0x78a <__divsf3+0x13a>
     780:	ce 01       	movw	r24, r28
     782:	01 96       	adiw	r24, 0x01	; 1
     784:	02 c0       	rjmp	.+4      	; 0x78a <__divsf3+0x13a>
     786:	8a e3       	ldi	r24, 0x3A	; 58
     788:	92 e0       	ldi	r25, 0x02	; 2
     78a:	0e 94 cb 03 	call	0x796	; 0x796 <__pack_f>
     78e:	68 96       	adiw	r28, 0x18	; 24
     790:	e8 e0       	ldi	r30, 0x08	; 8
     792:	0c 94 f0 0e 	jmp	0x1de0	; 0x1de0 <__epilogue_restores__+0x14>

00000796 <__pack_f>:
     796:	0f 93       	push	r16
     798:	1f 93       	push	r17
     79a:	cf 93       	push	r28
     79c:	fc 01       	movw	r30, r24
     79e:	44 81       	ldd	r20, Z+4	; 0x04
     7a0:	55 81       	ldd	r21, Z+5	; 0x05
     7a2:	66 81       	ldd	r22, Z+6	; 0x06
     7a4:	77 81       	ldd	r23, Z+7	; 0x07
     7a6:	c1 81       	ldd	r28, Z+1	; 0x01
     7a8:	80 81       	ld	r24, Z
     7aa:	82 30       	cpi	r24, 0x02	; 2
     7ac:	20 f4       	brcc	.+8      	; 0x7b6 <__pack_f+0x20>
     7ae:	60 61       	ori	r22, 0x10	; 16
     7b0:	8f ef       	ldi	r24, 0xFF	; 255
     7b2:	90 e0       	ldi	r25, 0x00	; 0
     7b4:	a3 c0       	rjmp	.+326    	; 0x8fc <__pack_f+0x166>
     7b6:	84 30       	cpi	r24, 0x04	; 4
     7b8:	09 f4       	brne	.+2      	; 0x7bc <__pack_f+0x26>
     7ba:	9b c0       	rjmp	.+310    	; 0x8f2 <__pack_f+0x15c>
     7bc:	82 30       	cpi	r24, 0x02	; 2
     7be:	09 f4       	brne	.+2      	; 0x7c2 <__pack_f+0x2c>
     7c0:	92 c0       	rjmp	.+292    	; 0x8e6 <__pack_f+0x150>
     7c2:	41 15       	cp	r20, r1
     7c4:	51 05       	cpc	r21, r1
     7c6:	61 05       	cpc	r22, r1
     7c8:	71 05       	cpc	r23, r1
     7ca:	09 f4       	brne	.+2      	; 0x7ce <__pack_f+0x38>
     7cc:	8f c0       	rjmp	.+286    	; 0x8ec <__pack_f+0x156>
     7ce:	22 81       	ldd	r18, Z+2	; 0x02
     7d0:	33 81       	ldd	r19, Z+3	; 0x03
     7d2:	22 38       	cpi	r18, 0x82	; 130
     7d4:	8f ef       	ldi	r24, 0xFF	; 255
     7d6:	38 07       	cpc	r19, r24
     7d8:	0c f0       	brlt	.+2      	; 0x7dc <__pack_f+0x46>
     7da:	57 c0       	rjmp	.+174    	; 0x88a <__pack_f+0xf4>
     7dc:	e2 e8       	ldi	r30, 0x82	; 130
     7de:	ff ef       	ldi	r31, 0xFF	; 255
     7e0:	e2 1b       	sub	r30, r18
     7e2:	f3 0b       	sbc	r31, r19
     7e4:	ea 31       	cpi	r30, 0x1A	; 26
     7e6:	f1 05       	cpc	r31, r1
     7e8:	64 f5       	brge	.+88     	; 0x842 <__pack_f+0xac>
     7ea:	8a 01       	movw	r16, r20
     7ec:	9b 01       	movw	r18, r22
     7ee:	0e 2e       	mov	r0, r30
     7f0:	04 c0       	rjmp	.+8      	; 0x7fa <__pack_f+0x64>
     7f2:	36 95       	lsr	r19
     7f4:	27 95       	ror	r18
     7f6:	17 95       	ror	r17
     7f8:	07 95       	ror	r16
     7fa:	0a 94       	dec	r0
     7fc:	d2 f7       	brpl	.-12     	; 0x7f2 <__pack_f+0x5c>
     7fe:	81 e0       	ldi	r24, 0x01	; 1
     800:	90 e0       	ldi	r25, 0x00	; 0
     802:	a0 e0       	ldi	r26, 0x00	; 0
     804:	b0 e0       	ldi	r27, 0x00	; 0
     806:	04 c0       	rjmp	.+8      	; 0x810 <__pack_f+0x7a>
     808:	88 0f       	add	r24, r24
     80a:	99 1f       	adc	r25, r25
     80c:	aa 1f       	adc	r26, r26
     80e:	bb 1f       	adc	r27, r27
     810:	ea 95       	dec	r30
     812:	d2 f7       	brpl	.-12     	; 0x808 <__pack_f+0x72>
     814:	01 97       	sbiw	r24, 0x01	; 1
     816:	a1 09       	sbc	r26, r1
     818:	b1 09       	sbc	r27, r1
     81a:	84 23       	and	r24, r20
     81c:	95 23       	and	r25, r21
     81e:	a6 23       	and	r26, r22
     820:	b7 23       	and	r27, r23
     822:	41 e0       	ldi	r20, 0x01	; 1
     824:	50 e0       	ldi	r21, 0x00	; 0
     826:	60 e0       	ldi	r22, 0x00	; 0
     828:	70 e0       	ldi	r23, 0x00	; 0
     82a:	89 2b       	or	r24, r25
     82c:	8a 2b       	or	r24, r26
     82e:	8b 2b       	or	r24, r27
     830:	19 f4       	brne	.+6      	; 0x838 <__pack_f+0xa2>
     832:	40 e0       	ldi	r20, 0x00	; 0
     834:	50 e0       	ldi	r21, 0x00	; 0
     836:	ba 01       	movw	r22, r20
     838:	40 2b       	or	r20, r16
     83a:	51 2b       	or	r21, r17
     83c:	62 2b       	or	r22, r18
     83e:	73 2b       	or	r23, r19
     840:	03 c0       	rjmp	.+6      	; 0x848 <__pack_f+0xb2>
     842:	40 e0       	ldi	r20, 0x00	; 0
     844:	50 e0       	ldi	r21, 0x00	; 0
     846:	ba 01       	movw	r22, r20
     848:	db 01       	movw	r26, r22
     84a:	ca 01       	movw	r24, r20
     84c:	8f 77       	andi	r24, 0x7F	; 127
     84e:	99 27       	eor	r25, r25
     850:	aa 27       	eor	r26, r26
     852:	bb 27       	eor	r27, r27
     854:	80 34       	cpi	r24, 0x40	; 64
     856:	91 05       	cpc	r25, r1
     858:	a1 05       	cpc	r26, r1
     85a:	b1 05       	cpc	r27, r1
     85c:	39 f4       	brne	.+14     	; 0x86c <__pack_f+0xd6>
     85e:	47 ff       	sbrs	r20, 7
     860:	09 c0       	rjmp	.+18     	; 0x874 <__pack_f+0xde>
     862:	40 5c       	subi	r20, 0xC0	; 192
     864:	5f 4f       	sbci	r21, 0xFF	; 255
     866:	6f 4f       	sbci	r22, 0xFF	; 255
     868:	7f 4f       	sbci	r23, 0xFF	; 255
     86a:	04 c0       	rjmp	.+8      	; 0x874 <__pack_f+0xde>
     86c:	41 5c       	subi	r20, 0xC1	; 193
     86e:	5f 4f       	sbci	r21, 0xFF	; 255
     870:	6f 4f       	sbci	r22, 0xFF	; 255
     872:	7f 4f       	sbci	r23, 0xFF	; 255
     874:	81 e0       	ldi	r24, 0x01	; 1
     876:	90 e0       	ldi	r25, 0x00	; 0
     878:	41 15       	cp	r20, r1
     87a:	51 05       	cpc	r21, r1
     87c:	61 05       	cpc	r22, r1
     87e:	20 e4       	ldi	r18, 0x40	; 64
     880:	72 07       	cpc	r23, r18
     882:	48 f5       	brcc	.+82     	; 0x8d6 <__pack_f+0x140>
     884:	80 e0       	ldi	r24, 0x00	; 0
     886:	90 e0       	ldi	r25, 0x00	; 0
     888:	26 c0       	rjmp	.+76     	; 0x8d6 <__pack_f+0x140>
     88a:	20 38       	cpi	r18, 0x80	; 128
     88c:	31 05       	cpc	r19, r1
     88e:	8c f5       	brge	.+98     	; 0x8f2 <__pack_f+0x15c>
     890:	db 01       	movw	r26, r22
     892:	ca 01       	movw	r24, r20
     894:	8f 77       	andi	r24, 0x7F	; 127
     896:	99 27       	eor	r25, r25
     898:	aa 27       	eor	r26, r26
     89a:	bb 27       	eor	r27, r27
     89c:	80 34       	cpi	r24, 0x40	; 64
     89e:	91 05       	cpc	r25, r1
     8a0:	a1 05       	cpc	r26, r1
     8a2:	b1 05       	cpc	r27, r1
     8a4:	39 f4       	brne	.+14     	; 0x8b4 <__pack_f+0x11e>
     8a6:	47 ff       	sbrs	r20, 7
     8a8:	09 c0       	rjmp	.+18     	; 0x8bc <__pack_f+0x126>
     8aa:	40 5c       	subi	r20, 0xC0	; 192
     8ac:	5f 4f       	sbci	r21, 0xFF	; 255
     8ae:	6f 4f       	sbci	r22, 0xFF	; 255
     8b0:	7f 4f       	sbci	r23, 0xFF	; 255
     8b2:	04 c0       	rjmp	.+8      	; 0x8bc <__pack_f+0x126>
     8b4:	41 5c       	subi	r20, 0xC1	; 193
     8b6:	5f 4f       	sbci	r21, 0xFF	; 255
     8b8:	6f 4f       	sbci	r22, 0xFF	; 255
     8ba:	7f 4f       	sbci	r23, 0xFF	; 255
     8bc:	77 fd       	sbrc	r23, 7
     8be:	04 c0       	rjmp	.+8      	; 0x8c8 <__pack_f+0x132>
     8c0:	c9 01       	movw	r24, r18
     8c2:	81 58       	subi	r24, 0x81	; 129
     8c4:	9f 4f       	sbci	r25, 0xFF	; 255
     8c6:	07 c0       	rjmp	.+14     	; 0x8d6 <__pack_f+0x140>
     8c8:	76 95       	lsr	r23
     8ca:	67 95       	ror	r22
     8cc:	57 95       	ror	r21
     8ce:	47 95       	ror	r20
     8d0:	c9 01       	movw	r24, r18
     8d2:	80 58       	subi	r24, 0x80	; 128
     8d4:	9f 4f       	sbci	r25, 0xFF	; 255
     8d6:	97 e0       	ldi	r25, 0x07	; 7
     8d8:	76 95       	lsr	r23
     8da:	67 95       	ror	r22
     8dc:	57 95       	ror	r21
     8de:	47 95       	ror	r20
     8e0:	9a 95       	dec	r25
     8e2:	d1 f7       	brne	.-12     	; 0x8d8 <__pack_f+0x142>
     8e4:	0b c0       	rjmp	.+22     	; 0x8fc <__pack_f+0x166>
     8e6:	80 e0       	ldi	r24, 0x00	; 0
     8e8:	90 e0       	ldi	r25, 0x00	; 0
     8ea:	05 c0       	rjmp	.+10     	; 0x8f6 <__pack_f+0x160>
     8ec:	80 e0       	ldi	r24, 0x00	; 0
     8ee:	90 e0       	ldi	r25, 0x00	; 0
     8f0:	05 c0       	rjmp	.+10     	; 0x8fc <__pack_f+0x166>
     8f2:	8f ef       	ldi	r24, 0xFF	; 255
     8f4:	90 e0       	ldi	r25, 0x00	; 0
     8f6:	40 e0       	ldi	r20, 0x00	; 0
     8f8:	50 e0       	ldi	r21, 0x00	; 0
     8fa:	ba 01       	movw	r22, r20
     8fc:	98 2f       	mov	r25, r24
     8fe:	96 95       	lsr	r25
     900:	c0 fb       	bst	r28, 0
     902:	97 f9       	bld	r25, 7
     904:	36 2f       	mov	r19, r22
     906:	80 fb       	bst	r24, 0
     908:	37 f9       	bld	r19, 7
     90a:	64 2f       	mov	r22, r20
     90c:	75 2f       	mov	r23, r21
     90e:	83 2f       	mov	r24, r19
     910:	cf 91       	pop	r28
     912:	1f 91       	pop	r17
     914:	0f 91       	pop	r16
     916:	08 95       	ret

00000918 <__unpack_f>:
     918:	cf 92       	push	r12
     91a:	df 92       	push	r13
     91c:	ef 92       	push	r14
     91e:	dc 01       	movw	r26, r24
     920:	fb 01       	movw	r30, r22
     922:	cc 90       	ld	r12, X
     924:	11 96       	adiw	r26, 0x01	; 1
     926:	dc 90       	ld	r13, X
     928:	11 97       	sbiw	r26, 0x01	; 1
     92a:	12 96       	adiw	r26, 0x02	; 2
     92c:	8c 91       	ld	r24, X
     92e:	12 97       	sbiw	r26, 0x02	; 2
     930:	3f e7       	ldi	r19, 0x7F	; 127
     932:	e3 2e       	mov	r14, r19
     934:	e8 22       	and	r14, r24
     936:	6e 2d       	mov	r22, r14
     938:	a6 01       	movw	r20, r12
     93a:	70 e0       	ldi	r23, 0x00	; 0
     93c:	98 2f       	mov	r25, r24
     93e:	99 1f       	adc	r25, r25
     940:	99 27       	eor	r25, r25
     942:	99 1f       	adc	r25, r25
     944:	13 96       	adiw	r26, 0x03	; 3
     946:	2c 91       	ld	r18, X
     948:	82 2f       	mov	r24, r18
     94a:	88 0f       	add	r24, r24
     94c:	89 2b       	or	r24, r25
     94e:	90 e0       	ldi	r25, 0x00	; 0
     950:	27 fb       	bst	r18, 7
     952:	22 27       	eor	r18, r18
     954:	20 f9       	bld	r18, 0
     956:	21 83       	std	Z+1, r18	; 0x01
     958:	00 97       	sbiw	r24, 0x00	; 0
     95a:	29 f5       	brne	.+74     	; 0x9a6 <__unpack_f+0x8e>
     95c:	41 15       	cp	r20, r1
     95e:	51 05       	cpc	r21, r1
     960:	61 05       	cpc	r22, r1
     962:	71 05       	cpc	r23, r1
     964:	11 f4       	brne	.+4      	; 0x96a <__unpack_f+0x52>
     966:	82 e0       	ldi	r24, 0x02	; 2
     968:	27 c0       	rjmp	.+78     	; 0x9b8 <__unpack_f+0xa0>
     96a:	82 e8       	ldi	r24, 0x82	; 130
     96c:	9f ef       	ldi	r25, 0xFF	; 255
     96e:	93 83       	std	Z+3, r25	; 0x03
     970:	82 83       	std	Z+2, r24	; 0x02
     972:	27 e0       	ldi	r18, 0x07	; 7
     974:	44 0f       	add	r20, r20
     976:	55 1f       	adc	r21, r21
     978:	66 1f       	adc	r22, r22
     97a:	77 1f       	adc	r23, r23
     97c:	2a 95       	dec	r18
     97e:	d1 f7       	brne	.-12     	; 0x974 <__unpack_f+0x5c>
     980:	83 e0       	ldi	r24, 0x03	; 3
     982:	80 83       	st	Z, r24
     984:	09 c0       	rjmp	.+18     	; 0x998 <__unpack_f+0x80>
     986:	44 0f       	add	r20, r20
     988:	55 1f       	adc	r21, r21
     98a:	66 1f       	adc	r22, r22
     98c:	77 1f       	adc	r23, r23
     98e:	82 81       	ldd	r24, Z+2	; 0x02
     990:	93 81       	ldd	r25, Z+3	; 0x03
     992:	01 97       	sbiw	r24, 0x01	; 1
     994:	93 83       	std	Z+3, r25	; 0x03
     996:	82 83       	std	Z+2, r24	; 0x02
     998:	41 15       	cp	r20, r1
     99a:	51 05       	cpc	r21, r1
     99c:	61 05       	cpc	r22, r1
     99e:	80 e4       	ldi	r24, 0x40	; 64
     9a0:	78 07       	cpc	r23, r24
     9a2:	88 f3       	brcs	.-30     	; 0x986 <__unpack_f+0x6e>
     9a4:	20 c0       	rjmp	.+64     	; 0x9e6 <__unpack_f+0xce>
     9a6:	8f 3f       	cpi	r24, 0xFF	; 255
     9a8:	91 05       	cpc	r25, r1
     9aa:	79 f4       	brne	.+30     	; 0x9ca <__unpack_f+0xb2>
     9ac:	41 15       	cp	r20, r1
     9ae:	51 05       	cpc	r21, r1
     9b0:	61 05       	cpc	r22, r1
     9b2:	71 05       	cpc	r23, r1
     9b4:	19 f4       	brne	.+6      	; 0x9bc <__unpack_f+0xa4>
     9b6:	84 e0       	ldi	r24, 0x04	; 4
     9b8:	80 83       	st	Z, r24
     9ba:	19 c0       	rjmp	.+50     	; 0x9ee <__unpack_f+0xd6>
     9bc:	e4 fe       	sbrs	r14, 4
     9be:	03 c0       	rjmp	.+6      	; 0x9c6 <__unpack_f+0xae>
     9c0:	81 e0       	ldi	r24, 0x01	; 1
     9c2:	80 83       	st	Z, r24
     9c4:	10 c0       	rjmp	.+32     	; 0x9e6 <__unpack_f+0xce>
     9c6:	10 82       	st	Z, r1
     9c8:	0e c0       	rjmp	.+28     	; 0x9e6 <__unpack_f+0xce>
     9ca:	8f 57       	subi	r24, 0x7F	; 127
     9cc:	91 09       	sbc	r25, r1
     9ce:	93 83       	std	Z+3, r25	; 0x03
     9d0:	82 83       	std	Z+2, r24	; 0x02
     9d2:	83 e0       	ldi	r24, 0x03	; 3
     9d4:	80 83       	st	Z, r24
     9d6:	87 e0       	ldi	r24, 0x07	; 7
     9d8:	44 0f       	add	r20, r20
     9da:	55 1f       	adc	r21, r21
     9dc:	66 1f       	adc	r22, r22
     9de:	77 1f       	adc	r23, r23
     9e0:	8a 95       	dec	r24
     9e2:	d1 f7       	brne	.-12     	; 0x9d8 <__unpack_f+0xc0>
     9e4:	70 64       	ori	r23, 0x40	; 64
     9e6:	44 83       	std	Z+4, r20	; 0x04
     9e8:	55 83       	std	Z+5, r21	; 0x05
     9ea:	66 83       	std	Z+6, r22	; 0x06
     9ec:	77 83       	std	Z+7, r23	; 0x07
     9ee:	ef 90       	pop	r14
     9f0:	df 90       	pop	r13
     9f2:	cf 90       	pop	r12
     9f4:	08 95       	ret

000009f6 <init_servo>:
     9f6:	82 50       	subi	r24, 0x02	; 2
     9f8:	21 e0       	ldi	r18, 0x01	; 1
     9fa:	30 e0       	ldi	r19, 0x00	; 0
     9fc:	84 30       	cpi	r24, 0x04	; 4
     9fe:	10 f4       	brcc	.+4      	; 0xa04 <init_servo+0xe>
     a00:	20 e0       	ldi	r18, 0x00	; 0
     a02:	30 e0       	ldi	r19, 0x00	; 0
     a04:	c9 01       	movw	r24, r18
     a06:	08 95       	ret

00000a08 <set_servo_pos>:
     a08:	81 e0       	ldi	r24, 0x01	; 1
     a0a:	90 e0       	ldi	r25, 0x00	; 0
     a0c:	08 95       	ret

00000a0e <main>:
     a0e:	83 e3       	ldi	r24, 0x33	; 51
     a10:	90 e0       	ldi	r25, 0x00	; 0
     a12:	0e 94 31 0d 	call	0x1a62	; 0x1a62 <uartInit>
     a16:	0e 94 e2 0b 	call	0x17c4	; 0x17c4 <init_pwm>
     a1a:	78 94       	sei
     a1c:	c8 ee       	ldi	r28, 0xE8	; 232
     a1e:	d3 e0       	ldi	r29, 0x03	; 3
     a20:	60 91 00 02 	lds	r22, 0x0200
     a24:	70 91 01 02 	lds	r23, 0x0201
     a28:	60 3d       	cpi	r22, 0xD0	; 208
     a2a:	87 e0       	ldi	r24, 0x07	; 7
     a2c:	78 07       	cpc	r23, r24
     a2e:	40 f5       	brcc	.+80     	; 0xa80 <main+0x72>
     a30:	85 e0       	ldi	r24, 0x05	; 5
     a32:	0e 94 3b 0c 	call	0x1876	; 0x1876 <set_pwm>
     a36:	60 91 00 02 	lds	r22, 0x0200
     a3a:	70 91 01 02 	lds	r23, 0x0201
     a3e:	85 e0       	ldi	r24, 0x05	; 5
     a40:	0e 94 3b 0c 	call	0x1876	; 0x1876 <set_pwm>
     a44:	60 91 00 02 	lds	r22, 0x0200
     a48:	70 91 01 02 	lds	r23, 0x0201
     a4c:	85 e0       	ldi	r24, 0x05	; 5
     a4e:	0e 94 3b 0c 	call	0x1876	; 0x1876 <set_pwm>
     a52:	60 91 00 02 	lds	r22, 0x0200
     a56:	70 91 01 02 	lds	r23, 0x0201
     a5a:	85 e0       	ldi	r24, 0x05	; 5
     a5c:	0e 94 3b 0c 	call	0x1876	; 0x1876 <set_pwm>
     a60:	80 91 00 02 	lds	r24, 0x0200
     a64:	90 91 01 02 	lds	r25, 0x0201
     a68:	01 96       	adiw	r24, 0x01	; 1
     a6a:	90 93 01 02 	sts	0x0201, r25
     a6e:	80 93 00 02 	sts	0x0200, r24
     a72:	8f e9       	ldi	r24, 0x9F	; 159
     a74:	9f e0       	ldi	r25, 0x0F	; 15
     a76:	01 97       	sbiw	r24, 0x01	; 1
     a78:	f1 f7       	brne	.-4      	; 0xa76 <main+0x68>
     a7a:	00 c0       	rjmp	.+0      	; 0xa7c <main+0x6e>
     a7c:	00 00       	nop
     a7e:	d0 cf       	rjmp	.-96     	; 0xa20 <main+0x12>
     a80:	d0 93 01 02 	sts	0x0201, r29
     a84:	c0 93 00 02 	sts	0x0200, r28
     a88:	cb cf       	rjmp	.-106    	; 0xa20 <main+0x12>

00000a8a <init_motor>:
     a8a:	cf 93       	push	r28
     a8c:	c8 2f       	mov	r28, r24
     a8e:	82 50       	subi	r24, 0x02	; 2
     a90:	84 30       	cpi	r24, 0x04	; 4
     a92:	f8 f4       	brcc	.+62     	; 0xad2 <init_motor+0x48>
     a94:	60 ed       	ldi	r22, 0xD0	; 208
     a96:	77 e0       	ldi	r23, 0x07	; 7
     a98:	8c 2f       	mov	r24, r28
     a9a:	0e 94 3b 0c 	call	0x1876	; 0x1876 <set_pwm>
     a9e:	2f ef       	ldi	r18, 0xFF	; 255
     aa0:	87 ea       	ldi	r24, 0xA7	; 167
     aa2:	91 e6       	ldi	r25, 0x61	; 97
     aa4:	21 50       	subi	r18, 0x01	; 1
     aa6:	80 40       	sbci	r24, 0x00	; 0
     aa8:	90 40       	sbci	r25, 0x00	; 0
     aaa:	e1 f7       	brne	.-8      	; 0xaa4 <init_motor+0x1a>
     aac:	00 c0       	rjmp	.+0      	; 0xaae <init_motor+0x24>
     aae:	00 00       	nop
     ab0:	68 ee       	ldi	r22, 0xE8	; 232
     ab2:	73 e0       	ldi	r23, 0x03	; 3
     ab4:	8c 2f       	mov	r24, r28
     ab6:	0e 94 3b 0c 	call	0x1876	; 0x1876 <set_pwm>
     aba:	2f ef       	ldi	r18, 0xFF	; 255
     abc:	87 ea       	ldi	r24, 0xA7	; 167
     abe:	91 e6       	ldi	r25, 0x61	; 97
     ac0:	21 50       	subi	r18, 0x01	; 1
     ac2:	80 40       	sbci	r24, 0x00	; 0
     ac4:	90 40       	sbci	r25, 0x00	; 0
     ac6:	e1 f7       	brne	.-8      	; 0xac0 <init_motor+0x36>
     ac8:	00 c0       	rjmp	.+0      	; 0xaca <init_motor+0x40>
     aca:	00 00       	nop
     acc:	20 e0       	ldi	r18, 0x00	; 0
     ace:	30 e0       	ldi	r19, 0x00	; 0
     ad0:	02 c0       	rjmp	.+4      	; 0xad6 <init_motor+0x4c>
     ad2:	21 e0       	ldi	r18, 0x01	; 1
     ad4:	30 e0       	ldi	r19, 0x00	; 0
     ad6:	c9 01       	movw	r24, r18
     ad8:	cf 91       	pop	r28
     ada:	08 95       	ret

00000adc <set_throtle>:
     adc:	8b 30       	cpi	r24, 0x0B	; 11
     ade:	80 f4       	brcc	.+32     	; 0xb00 <set_throtle+0x24>
     ae0:	9b 01       	movw	r18, r22
     ae2:	28 5e       	subi	r18, 0xE8	; 232
     ae4:	33 40       	sbci	r19, 0x03	; 3
     ae6:	29 3e       	cpi	r18, 0xE9	; 233
     ae8:	33 40       	sbci	r19, 0x03	; 3
     aea:	50 f4       	brcc	.+20     	; 0xb00 <set_throtle+0x24>
     aec:	93 e0       	ldi	r25, 0x03	; 3
     aee:	66 0f       	add	r22, r22
     af0:	77 1f       	adc	r23, r23
     af2:	9a 95       	dec	r25
     af4:	e1 f7       	brne	.-8      	; 0xaee <set_throtle+0x12>
     af6:	0e 94 3b 0c 	call	0x1876	; 0x1876 <set_pwm>
     afa:	20 e0       	ldi	r18, 0x00	; 0
     afc:	30 e0       	ldi	r19, 0x00	; 0
     afe:	02 c0       	rjmp	.+4      	; 0xb04 <set_throtle+0x28>
     b00:	21 e0       	ldi	r18, 0x01	; 1
     b02:	30 e0       	ldi	r19, 0x00	; 0
     b04:	c9 01       	movw	r24, r18
     b06:	08 95       	ret

00000b08 <disable_motor>:
     b08:	8b 30       	cpi	r24, 0x0B	; 11
     b0a:	38 f4       	brcc	.+14     	; 0xb1a <disable_motor+0x12>
     b0c:	60 e0       	ldi	r22, 0x00	; 0
     b0e:	70 e0       	ldi	r23, 0x00	; 0
     b10:	0e 94 3b 0c 	call	0x1876	; 0x1876 <set_pwm>
     b14:	20 e0       	ldi	r18, 0x00	; 0
     b16:	30 e0       	ldi	r19, 0x00	; 0
     b18:	02 c0       	rjmp	.+4      	; 0xb1e <disable_motor+0x16>
     b1a:	21 e0       	ldi	r18, 0x01	; 1
     b1c:	30 e0       	ldi	r19, 0x00	; 0
     b1e:	c9 01       	movw	r24, r18
     b20:	08 95       	ret

00000b22 <init_accelerometer>:
     b22:	8f e3       	ldi	r24, 0x3F	; 63
     b24:	9c e9       	ldi	r25, 0x9C	; 156
     b26:	01 97       	sbiw	r24, 0x01	; 1
     b28:	f1 f7       	brne	.-4      	; 0xb26 <init_accelerometer+0x4>
     b2a:	00 c0       	rjmp	.+0      	; 0xb2c <init_accelerometer+0xa>
     b2c:	00 00       	nop
     b2e:	40 e1       	ldi	r20, 0x10	; 16
     b30:	6d e0       	ldi	r22, 0x0D	; 13
     b32:	80 e4       	ldi	r24, 0x40	; 64
     b34:	0e 94 28 09 	call	0x1250	; 0x1250 <i2c_writeReg>
     b38:	8f e1       	ldi	r24, 0x1F	; 31
     b3a:	9e e4       	ldi	r25, 0x4E	; 78
     b3c:	01 97       	sbiw	r24, 0x01	; 1
     b3e:	f1 f7       	brne	.-4      	; 0xb3c <init_accelerometer+0x1a>
     b40:	00 c0       	rjmp	.+0      	; 0xb42 <init_accelerometer+0x20>
     b42:	00 00       	nop
     b44:	60 e2       	ldi	r22, 0x20	; 32
     b46:	80 e4       	ldi	r24, 0x40	; 64
     b48:	0e 94 43 09 	call	0x1286	; 0x1286 <i2c_readReg>
     b4c:	48 2f       	mov	r20, r24
     b4e:	4f 70       	andi	r20, 0x0F	; 15
     b50:	60 e2       	ldi	r22, 0x20	; 32
     b52:	80 e4       	ldi	r24, 0x40	; 64
     b54:	0e 94 28 09 	call	0x1250	; 0x1250 <i2c_writeReg>
     b58:	8f e1       	ldi	r24, 0x1F	; 31
     b5a:	9e e4       	ldi	r25, 0x4E	; 78
     b5c:	01 97       	sbiw	r24, 0x01	; 1
     b5e:	f1 f7       	brne	.-4      	; 0xb5c <init_accelerometer+0x3a>
     b60:	00 c0       	rjmp	.+0      	; 0xb62 <init_accelerometer+0x40>
     b62:	00 00       	nop
     b64:	60 e3       	ldi	r22, 0x30	; 48
     b66:	80 e4       	ldi	r24, 0x40	; 64
     b68:	0e 94 43 09 	call	0x1286	; 0x1286 <i2c_readReg>
     b6c:	48 2f       	mov	r20, r24
     b6e:	4c 7f       	andi	r20, 0xFC	; 252
     b70:	60 e3       	ldi	r22, 0x30	; 48
     b72:	80 e4       	ldi	r24, 0x40	; 64
     b74:	0e 94 28 09 	call	0x1250	; 0x1250 <i2c_writeReg>
     b78:	8f e1       	ldi	r24, 0x1F	; 31
     b7a:	9e e4       	ldi	r25, 0x4E	; 78
     b7c:	01 97       	sbiw	r24, 0x01	; 1
     b7e:	f1 f7       	brne	.-4      	; 0xb7c <init_accelerometer+0x5a>
     b80:	00 c0       	rjmp	.+0      	; 0xb82 <init_accelerometer+0x60>
     b82:	00 00       	nop
     b84:	65 e3       	ldi	r22, 0x35	; 53
     b86:	80 e4       	ldi	r24, 0x40	; 64
     b88:	0e 94 43 09 	call	0x1286	; 0x1286 <i2c_readReg>
     b8c:	48 2f       	mov	r20, r24
     b8e:	41 7f       	andi	r20, 0xF1	; 241
     b90:	4a 60       	ori	r20, 0x0A	; 10
     b92:	65 e3       	ldi	r22, 0x35	; 53
     b94:	80 e4       	ldi	r24, 0x40	; 64
     b96:	0e 94 28 09 	call	0x1250	; 0x1250 <i2c_writeReg>
     b9a:	8f e1       	ldi	r24, 0x1F	; 31
     b9c:	9e e4       	ldi	r25, 0x4E	; 78
     b9e:	01 97       	sbiw	r24, 0x01	; 1
     ba0:	f1 f7       	brne	.-4      	; 0xb9e <init_accelerometer+0x7c>
     ba2:	00 c0       	rjmp	.+0      	; 0xba4 <init_accelerometer+0x82>
     ba4:	00 00       	nop
     ba6:	08 95       	ret

00000ba8 <ACC_Common>:
     ba8:	ff 92       	push	r15
     baa:	0f 93       	push	r16
     bac:	1f 93       	push	r17
     bae:	cf 93       	push	r28
     bb0:	df 93       	push	r29
     bb2:	20 91 b8 02 	lds	r18, 0x02B8
     bb6:	30 91 b9 02 	lds	r19, 0x02B9
     bba:	21 15       	cp	r18, r1
     bbc:	31 05       	cpc	r19, r1
     bbe:	09 f4       	brne	.+2      	; 0xbc2 <ACC_Common+0x1a>
     bc0:	81 c0       	rjmp	.+258    	; 0xcc4 <ACC_Common+0x11c>
     bc2:	e8 e5       	ldi	r30, 0x58	; 88
     bc4:	f2 e0       	ldi	r31, 0x02	; 2
     bc6:	cb e3       	ldi	r28, 0x3B	; 59
     bc8:	d3 e0       	ldi	r29, 0x03	; 3
     bca:	04 e5       	ldi	r16, 0x54	; 84
     bcc:	13 e0       	ldi	r17, 0x03	; 3
     bce:	f1 2c       	mov	r15, r1
     bd0:	21 15       	cp	r18, r1
     bd2:	82 e0       	ldi	r24, 0x02	; 2
     bd4:	38 07       	cpc	r19, r24
     bd6:	21 f4       	brne	.+8      	; 0xbe0 <ACC_Common+0x38>
     bd8:	10 82       	st	Z, r1
     bda:	11 82       	std	Z+1, r1	; 0x01
     bdc:	12 82       	std	Z+2, r1	; 0x02
     bde:	13 82       	std	Z+3, r1	; 0x03
     be0:	48 81       	ld	r20, Y
     be2:	59 81       	ldd	r21, Y+1	; 0x01
     be4:	66 27       	eor	r22, r22
     be6:	57 fd       	sbrc	r21, 7
     be8:	60 95       	com	r22
     bea:	76 2f       	mov	r23, r22
     bec:	80 81       	ld	r24, Z
     bee:	91 81       	ldd	r25, Z+1	; 0x01
     bf0:	a2 81       	ldd	r26, Z+2	; 0x02
     bf2:	b3 81       	ldd	r27, Z+3	; 0x03
     bf4:	84 0f       	add	r24, r20
     bf6:	95 1f       	adc	r25, r21
     bf8:	a6 1f       	adc	r26, r22
     bfa:	b7 1f       	adc	r27, r23
     bfc:	81 93       	st	Z+, r24
     bfe:	91 93       	st	Z+, r25
     c00:	a1 93       	st	Z+, r26
     c02:	b1 93       	st	Z+, r27
     c04:	19 92       	st	Y+, r1
     c06:	19 92       	st	Y+, r1
     c08:	d8 01       	movw	r26, r16
     c0a:	1d 92       	st	X+, r1
     c0c:	1d 92       	st	X+, r1
     c0e:	8d 01       	movw	r16, r26
     c10:	f3 94       	inc	r15
     c12:	b3 e0       	ldi	r27, 0x03	; 3
     c14:	fb 12       	cpse	r15, r27
     c16:	dc cf       	rjmp	.-72     	; 0xbd0 <ACC_Common+0x28>
     c18:	21 30       	cpi	r18, 0x01	; 1
     c1a:	31 05       	cpc	r19, r1
     c1c:	09 f0       	breq	.+2      	; 0xc20 <ACC_Common+0x78>
     c1e:	4c c0       	rjmp	.+152    	; 0xcb8 <ACC_Common+0x110>
     c20:	80 91 58 02 	lds	r24, 0x0258
     c24:	90 91 59 02 	lds	r25, 0x0259
     c28:	a0 91 5a 02 	lds	r26, 0x025A
     c2c:	b0 91 5b 02 	lds	r27, 0x025B
     c30:	9f 5f       	subi	r25, 0xFF	; 255
     c32:	af 4f       	sbci	r26, 0xFF	; 255
     c34:	bf 4f       	sbci	r27, 0xFF	; 255
     c36:	49 e0       	ldi	r20, 0x09	; 9
     c38:	b5 95       	asr	r27
     c3a:	a7 95       	ror	r26
     c3c:	97 95       	ror	r25
     c3e:	87 95       	ror	r24
     c40:	4a 95       	dec	r20
     c42:	d1 f7       	brne	.-12     	; 0xc38 <ACC_Common+0x90>
     c44:	90 93 55 03 	sts	0x0355, r25
     c48:	80 93 54 03 	sts	0x0354, r24
     c4c:	80 91 5c 02 	lds	r24, 0x025C
     c50:	90 91 5d 02 	lds	r25, 0x025D
     c54:	a0 91 5e 02 	lds	r26, 0x025E
     c58:	b0 91 5f 02 	lds	r27, 0x025F
     c5c:	9f 5f       	subi	r25, 0xFF	; 255
     c5e:	af 4f       	sbci	r26, 0xFF	; 255
     c60:	bf 4f       	sbci	r27, 0xFF	; 255
     c62:	59 e0       	ldi	r21, 0x09	; 9
     c64:	b5 95       	asr	r27
     c66:	a7 95       	ror	r26
     c68:	97 95       	ror	r25
     c6a:	87 95       	ror	r24
     c6c:	5a 95       	dec	r21
     c6e:	d1 f7       	brne	.-12     	; 0xc64 <ACC_Common+0xbc>
     c70:	90 93 57 03 	sts	0x0357, r25
     c74:	80 93 56 03 	sts	0x0356, r24
     c78:	80 91 60 02 	lds	r24, 0x0260
     c7c:	90 91 61 02 	lds	r25, 0x0261
     c80:	a0 91 62 02 	lds	r26, 0x0262
     c84:	b0 91 63 02 	lds	r27, 0x0263
     c88:	9f 5f       	subi	r25, 0xFF	; 255
     c8a:	af 4f       	sbci	r26, 0xFF	; 255
     c8c:	bf 4f       	sbci	r27, 0xFF	; 255
     c8e:	69 e0       	ldi	r22, 0x09	; 9
     c90:	b5 95       	asr	r27
     c92:	a7 95       	ror	r26
     c94:	97 95       	ror	r25
     c96:	87 95       	ror	r24
     c98:	6a 95       	dec	r22
     c9a:	d1 f7       	brne	.-12     	; 0xc90 <ACC_Common+0xe8>
     c9c:	8f 5f       	subi	r24, 0xFF	; 255
     c9e:	91 09       	sbc	r25, r1
     ca0:	90 93 59 03 	sts	0x0359, r25
     ca4:	80 93 58 03 	sts	0x0358, r24
     ca8:	10 92 e0 02 	sts	0x02E0, r1
     cac:	10 92 df 02 	sts	0x02DF, r1
     cb0:	10 92 e2 02 	sts	0x02E2, r1
     cb4:	10 92 e1 02 	sts	0x02E1, r1
     cb8:	21 50       	subi	r18, 0x01	; 1
     cba:	31 09       	sbc	r19, r1
     cbc:	30 93 b9 02 	sts	0x02B9, r19
     cc0:	20 93 b8 02 	sts	0x02B8, r18
     cc4:	80 91 3b 03 	lds	r24, 0x033B
     cc8:	90 91 3c 03 	lds	r25, 0x033C
     ccc:	20 91 54 03 	lds	r18, 0x0354
     cd0:	30 91 55 03 	lds	r19, 0x0355
     cd4:	82 1b       	sub	r24, r18
     cd6:	93 0b       	sbc	r25, r19
     cd8:	90 93 3c 03 	sts	0x033C, r25
     cdc:	80 93 3b 03 	sts	0x033B, r24
     ce0:	80 91 3d 03 	lds	r24, 0x033D
     ce4:	90 91 3e 03 	lds	r25, 0x033E
     ce8:	20 91 56 03 	lds	r18, 0x0356
     cec:	30 91 57 03 	lds	r19, 0x0357
     cf0:	82 1b       	sub	r24, r18
     cf2:	93 0b       	sbc	r25, r19
     cf4:	90 93 3e 03 	sts	0x033E, r25
     cf8:	80 93 3d 03 	sts	0x033D, r24
     cfc:	80 91 3f 03 	lds	r24, 0x033F
     d00:	90 91 40 03 	lds	r25, 0x0340
     d04:	20 91 58 03 	lds	r18, 0x0358
     d08:	30 91 59 03 	lds	r19, 0x0359
     d0c:	82 1b       	sub	r24, r18
     d0e:	93 0b       	sbc	r25, r19
     d10:	90 93 40 03 	sts	0x0340, r25
     d14:	80 93 3f 03 	sts	0x033F, r24
     d18:	df 91       	pop	r29
     d1a:	cf 91       	pop	r28
     d1c:	1f 91       	pop	r17
     d1e:	0f 91       	pop	r16
     d20:	ff 90       	pop	r15
     d22:	08 95       	ret

00000d24 <accelerometer_get_data>:
     d24:	8f 92       	push	r8
     d26:	9f 92       	push	r9
     d28:	af 92       	push	r10
     d2a:	bf 92       	push	r11
     d2c:	cf 92       	push	r12
     d2e:	df 92       	push	r13
     d30:	ef 92       	push	r14
     d32:	ff 92       	push	r15
     d34:	0f 93       	push	r16
     d36:	1f 93       	push	r17
     d38:	cf 93       	push	r28
     d3a:	df 93       	push	r29
     d3c:	6c 01       	movw	r12, r24
     d3e:	5b 01       	movw	r10, r22
     d40:	4a 01       	movw	r8, r20
     d42:	8c e0       	ldi	r24, 0x0C	; 12
     d44:	80 93 b8 00 	sts	0x00B8, r24
     d48:	62 e0       	ldi	r22, 0x02	; 2
     d4a:	80 e4       	ldi	r24, 0x40	; 64
     d4c:	0e 94 22 09 	call	0x1244	; 0x1244 <i2c_getSixRawADC>
     d50:	7b e3       	ldi	r23, 0x3B	; 59
     d52:	e7 2e       	mov	r14, r23
     d54:	73 e0       	ldi	r23, 0x03	; 3
     d56:	f7 2e       	mov	r15, r23
     d58:	30 91 46 03 	lds	r19, 0x0346
     d5c:	20 e0       	ldi	r18, 0x00	; 0
     d5e:	80 91 45 03 	lds	r24, 0x0345
     d62:	28 2b       	or	r18, r24
     d64:	31 95       	neg	r19
     d66:	21 95       	neg	r18
     d68:	31 09       	sbc	r19, r1
     d6a:	f7 01       	movw	r30, r14
     d6c:	31 83       	std	Z+1, r19	; 0x01
     d6e:	20 83       	st	Z, r18
     d70:	0d e3       	ldi	r16, 0x3D	; 61
     d72:	13 e0       	ldi	r17, 0x03	; 3
     d74:	30 91 48 03 	lds	r19, 0x0348
     d78:	20 e0       	ldi	r18, 0x00	; 0
     d7a:	80 91 47 03 	lds	r24, 0x0347
     d7e:	28 2b       	or	r18, r24
     d80:	31 95       	neg	r19
     d82:	21 95       	neg	r18
     d84:	31 09       	sbc	r19, r1
     d86:	f8 01       	movw	r30, r16
     d88:	31 83       	std	Z+1, r19	; 0x01
     d8a:	20 83       	st	Z, r18
     d8c:	cf e3       	ldi	r28, 0x3F	; 63
     d8e:	d3 e0       	ldi	r29, 0x03	; 3
     d90:	30 91 4a 03 	lds	r19, 0x034A
     d94:	20 e0       	ldi	r18, 0x00	; 0
     d96:	80 91 49 03 	lds	r24, 0x0349
     d9a:	28 2b       	or	r18, r24
     d9c:	39 83       	std	Y+1, r19	; 0x01
     d9e:	28 83       	st	Y, r18
     da0:	0e 94 d4 05 	call	0xba8	; 0xba8 <ACC_Common>
     da4:	f7 01       	movw	r30, r14
     da6:	80 81       	ld	r24, Z
     da8:	91 81       	ldd	r25, Z+1	; 0x01
     daa:	f6 01       	movw	r30, r12
     dac:	91 83       	std	Z+1, r25	; 0x01
     dae:	80 83       	st	Z, r24
     db0:	f8 01       	movw	r30, r16
     db2:	80 81       	ld	r24, Z
     db4:	91 81       	ldd	r25, Z+1	; 0x01
     db6:	f5 01       	movw	r30, r10
     db8:	91 83       	std	Z+1, r25	; 0x01
     dba:	80 83       	st	Z, r24
     dbc:	88 81       	ld	r24, Y
     dbe:	99 81       	ldd	r25, Y+1	; 0x01
     dc0:	f4 01       	movw	r30, r8
     dc2:	91 83       	std	Z+1, r25	; 0x01
     dc4:	80 83       	st	Z, r24
     dc6:	df 91       	pop	r29
     dc8:	cf 91       	pop	r28
     dca:	1f 91       	pop	r17
     dcc:	0f 91       	pop	r16
     dce:	ff 90       	pop	r15
     dd0:	ef 90       	pop	r14
     dd2:	df 90       	pop	r13
     dd4:	cf 90       	pop	r12
     dd6:	bf 90       	pop	r11
     dd8:	af 90       	pop	r10
     dda:	9f 90       	pop	r9
     ddc:	8f 90       	pop	r8
     dde:	08 95       	ret

00000de0 <init_gyro>:
     de0:	2f ef       	ldi	r18, 0xFF	; 255
     de2:	81 ee       	ldi	r24, 0xE1	; 225
     de4:	94 e0       	ldi	r25, 0x04	; 4
     de6:	21 50       	subi	r18, 0x01	; 1
     de8:	80 40       	sbci	r24, 0x00	; 0
     dea:	90 40       	sbci	r25, 0x00	; 0
     dec:	e1 f7       	brne	.-8      	; 0xde6 <init_gyro+0x6>
     dee:	00 c0       	rjmp	.+0      	; 0xdf0 <init_gyro+0x10>
     df0:	00 00       	nop
     df2:	40 e8       	ldi	r20, 0x80	; 128
     df4:	6e e3       	ldi	r22, 0x3E	; 62
     df6:	88 e6       	ldi	r24, 0x68	; 104
     df8:	0e 94 28 09 	call	0x1250	; 0x1250 <i2c_writeReg>
     dfc:	8f e1       	ldi	r24, 0x1F	; 31
     dfe:	9e e4       	ldi	r25, 0x4E	; 78
     e00:	01 97       	sbiw	r24, 0x01	; 1
     e02:	f1 f7       	brne	.-4      	; 0xe00 <init_gyro+0x20>
     e04:	00 c0       	rjmp	.+0      	; 0xe06 <init_gyro+0x26>
     e06:	00 00       	nop
     e08:	4b e1       	ldi	r20, 0x1B	; 27
     e0a:	66 e1       	ldi	r22, 0x16	; 22
     e0c:	88 e6       	ldi	r24, 0x68	; 104
     e0e:	0e 94 28 09 	call	0x1250	; 0x1250 <i2c_writeReg>
     e12:	8f e1       	ldi	r24, 0x1F	; 31
     e14:	9e e4       	ldi	r25, 0x4E	; 78
     e16:	01 97       	sbiw	r24, 0x01	; 1
     e18:	f1 f7       	brne	.-4      	; 0xe16 <init_gyro+0x36>
     e1a:	00 c0       	rjmp	.+0      	; 0xe1c <init_gyro+0x3c>
     e1c:	00 00       	nop
     e1e:	43 e0       	ldi	r20, 0x03	; 3
     e20:	6e e3       	ldi	r22, 0x3E	; 62
     e22:	88 e6       	ldi	r24, 0x68	; 104
     e24:	0e 94 28 09 	call	0x1250	; 0x1250 <i2c_writeReg>
     e28:	9f ef       	ldi	r25, 0xFF	; 255
     e2a:	21 ee       	ldi	r18, 0xE1	; 225
     e2c:	84 e0       	ldi	r24, 0x04	; 4
     e2e:	91 50       	subi	r25, 0x01	; 1
     e30:	20 40       	sbci	r18, 0x00	; 0
     e32:	80 40       	sbci	r24, 0x00	; 0
     e34:	e1 f7       	brne	.-8      	; 0xe2e <init_gyro+0x4e>
     e36:	00 c0       	rjmp	.+0      	; 0xe38 <init_gyro+0x58>
     e38:	00 00       	nop
     e3a:	08 95       	ret

00000e3c <gyro_get_temp>:
     e3c:	0f 93       	push	r16
     e3e:	1f 93       	push	r17
     e40:	cf 93       	push	r28
     e42:	df 93       	push	r29
     e44:	1f 92       	push	r1
     e46:	1f 92       	push	r1
     e48:	cd b7       	in	r28, 0x3d	; 61
     e4a:	de b7       	in	r29, 0x3e	; 62
     e4c:	8c 01       	movw	r16, r24
     e4e:	8c e0       	ldi	r24, 0x0C	; 12
     e50:	80 93 b8 00 	sts	0x00B8, r24
     e54:	22 e0       	ldi	r18, 0x02	; 2
     e56:	30 e0       	ldi	r19, 0x00	; 0
     e58:	ae 01       	movw	r20, r28
     e5a:	4f 5f       	subi	r20, 0xFF	; 255
     e5c:	5f 4f       	sbci	r21, 0xFF	; 255
     e5e:	6b e1       	ldi	r22, 0x1B	; 27
     e60:	88 e6       	ldi	r24, 0x68	; 104
     e62:	0e 94 f1 08 	call	0x11e2	; 0x11e2 <i2c_read_reg_to_buf>
     e66:	39 81       	ldd	r19, Y+1	; 0x01
     e68:	20 e0       	ldi	r18, 0x00	; 0
     e6a:	8a 81       	ldd	r24, Y+2	; 0x02
     e6c:	a9 01       	movw	r20, r18
     e6e:	48 2b       	or	r20, r24
     e70:	ca 01       	movw	r24, r20
     e72:	68 e1       	ldi	r22, 0x18	; 24
     e74:	71 e0       	ldi	r23, 0x01	; 1
     e76:	0e 94 b6 0e 	call	0x1d6c	; 0x1d6c <__udivmodhi4>
     e7a:	f8 01       	movw	r30, r16
     e7c:	71 83       	std	Z+1, r23	; 0x01
     e7e:	60 83       	st	Z, r22
     e80:	0f 90       	pop	r0
     e82:	0f 90       	pop	r0
     e84:	df 91       	pop	r29
     e86:	cf 91       	pop	r28
     e88:	1f 91       	pop	r17
     e8a:	0f 91       	pop	r16
     e8c:	08 95       	ret

00000e8e <GYRO_Common>:
     e8e:	df 92       	push	r13
     e90:	ef 92       	push	r14
     e92:	ff 92       	push	r15
     e94:	0f 93       	push	r16
     e96:	1f 93       	push	r17
     e98:	cf 93       	push	r28
     e9a:	df 93       	push	r29
     e9c:	80 91 6f 03 	lds	r24, 0x036F
     ea0:	90 91 70 03 	lds	r25, 0x0370
     ea4:	89 2b       	or	r24, r25
     ea6:	09 f4       	brne	.+2      	; 0xeaa <GYRO_Common+0x1c>
     ea8:	64 c0       	rjmp	.+200    	; 0xf72 <GYRO_Common+0xe4>
     eaa:	c4 e6       	ldi	r28, 0x64	; 100
     eac:	d2 e0       	ldi	r29, 0x02	; 2
     eae:	35 e3       	ldi	r19, 0x35	; 53
     eb0:	e3 2e       	mov	r14, r19
     eb2:	33 e0       	ldi	r19, 0x03	; 3
     eb4:	f3 2e       	mov	r15, r19
     eb6:	07 e6       	ldi	r16, 0x67	; 103
     eb8:	13 e0       	ldi	r17, 0x03	; 3
     eba:	d1 2c       	mov	r13, r1
     ebc:	20 91 6f 03 	lds	r18, 0x036F
     ec0:	30 91 70 03 	lds	r19, 0x0370
     ec4:	21 15       	cp	r18, r1
     ec6:	82 e0       	ldi	r24, 0x02	; 2
     ec8:	38 07       	cpc	r19, r24
     eca:	21 f4       	brne	.+8      	; 0xed4 <GYRO_Common+0x46>
     ecc:	18 82       	st	Y, r1
     ece:	19 82       	std	Y+1, r1	; 0x01
     ed0:	1a 82       	std	Y+2, r1	; 0x02
     ed2:	1b 82       	std	Y+3, r1	; 0x03
     ed4:	f7 01       	movw	r30, r14
     ed6:	40 81       	ld	r20, Z
     ed8:	51 81       	ldd	r21, Z+1	; 0x01
     eda:	66 27       	eor	r22, r22
     edc:	57 fd       	sbrc	r21, 7
     ede:	60 95       	com	r22
     ee0:	76 2f       	mov	r23, r22
     ee2:	88 81       	ld	r24, Y
     ee4:	99 81       	ldd	r25, Y+1	; 0x01
     ee6:	aa 81       	ldd	r26, Y+2	; 0x02
     ee8:	bb 81       	ldd	r27, Y+3	; 0x03
     eea:	84 0f       	add	r24, r20
     eec:	95 1f       	adc	r25, r21
     eee:	a6 1f       	adc	r26, r22
     ef0:	b7 1f       	adc	r27, r23
     ef2:	88 83       	st	Y, r24
     ef4:	99 83       	std	Y+1, r25	; 0x01
     ef6:	aa 83       	std	Y+2, r26	; 0x02
     ef8:	bb 83       	std	Y+3, r27	; 0x03
     efa:	11 82       	std	Z+1, r1	; 0x01
     efc:	10 82       	st	Z, r1
     efe:	f8 01       	movw	r30, r16
     f00:	11 82       	std	Z+1, r1	; 0x01
     f02:	10 82       	st	Z, r1
     f04:	21 30       	cpi	r18, 0x01	; 1
     f06:	31 05       	cpc	r19, r1
     f08:	09 f5       	brne	.+66     	; 0xf4c <GYRO_Common+0xbe>
     f0a:	8d e6       	ldi	r24, 0x6D	; 109
     f0c:	93 e0       	ldi	r25, 0x03	; 3
     f0e:	0e 94 1e 07 	call	0xe3c	; 0xe3c <gyro_get_temp>
     f12:	10 92 72 03 	sts	0x0372, r1
     f16:	10 92 71 03 	sts	0x0371, r1
     f1a:	10 92 74 03 	sts	0x0374, r1
     f1e:	10 92 73 03 	sts	0x0373, r1
     f22:	10 92 76 03 	sts	0x0376, r1
     f26:	10 92 75 03 	sts	0x0375, r1
     f2a:	88 81       	ld	r24, Y
     f2c:	99 81       	ldd	r25, Y+1	; 0x01
     f2e:	aa 81       	ldd	r26, Y+2	; 0x02
     f30:	bb 81       	ldd	r27, Y+3	; 0x03
     f32:	9f 5f       	subi	r25, 0xFF	; 255
     f34:	af 4f       	sbci	r26, 0xFF	; 255
     f36:	bf 4f       	sbci	r27, 0xFF	; 255
     f38:	29 e0       	ldi	r18, 0x09	; 9
     f3a:	b5 95       	asr	r27
     f3c:	a7 95       	ror	r26
     f3e:	97 95       	ror	r25
     f40:	87 95       	ror	r24
     f42:	2a 95       	dec	r18
     f44:	d1 f7       	brne	.-12     	; 0xf3a <GYRO_Common+0xac>
     f46:	f8 01       	movw	r30, r16
     f48:	91 83       	std	Z+1, r25	; 0x01
     f4a:	80 83       	st	Z, r24
     f4c:	d3 94       	inc	r13
     f4e:	24 96       	adiw	r28, 0x04	; 4
     f50:	f2 e0       	ldi	r31, 0x02	; 2
     f52:	ef 0e       	add	r14, r31
     f54:	f1 1c       	adc	r15, r1
     f56:	0e 5f       	subi	r16, 0xFE	; 254
     f58:	1f 4f       	sbci	r17, 0xFF	; 255
     f5a:	83 e0       	ldi	r24, 0x03	; 3
     f5c:	d8 12       	cpse	r13, r24
     f5e:	ae cf       	rjmp	.-164    	; 0xebc <GYRO_Common+0x2e>
     f60:	80 91 6f 03 	lds	r24, 0x036F
     f64:	90 91 70 03 	lds	r25, 0x0370
     f68:	01 97       	sbiw	r24, 0x01	; 1
     f6a:	90 93 70 03 	sts	0x0370, r25
     f6e:	80 93 6f 03 	sts	0x036F, r24
     f72:	e7 e6       	ldi	r30, 0x67	; 103
     f74:	f3 e0       	ldi	r31, 0x03	; 3
     f76:	c5 e3       	ldi	r28, 0x35	; 53
     f78:	d3 e0       	ldi	r29, 0x03	; 3
     f7a:	a0 e7       	ldi	r26, 0x70	; 112
     f7c:	b2 e0       	ldi	r27, 0x02	; 2
     f7e:	81 91       	ld	r24, Z+
     f80:	91 91       	ld	r25, Z+
     f82:	28 81       	ld	r18, Y
     f84:	39 81       	ldd	r19, Y+1	; 0x01
     f86:	28 1b       	sub	r18, r24
     f88:	39 0b       	sbc	r19, r25
     f8a:	4d 91       	ld	r20, X+
     f8c:	5c 91       	ld	r21, X
     f8e:	11 97       	sbiw	r26, 0x01	; 1
     f90:	ca 01       	movw	r24, r20
     f92:	80 52       	subi	r24, 0x20	; 32
     f94:	93 40       	sbci	r25, 0x03	; 3
     f96:	28 17       	cp	r18, r24
     f98:	39 07       	cpc	r19, r25
     f9a:	3c f0       	brlt	.+14     	; 0xfaa <GYRO_Common+0x11c>
     f9c:	ca 01       	movw	r24, r20
     f9e:	80 5e       	subi	r24, 0xE0	; 224
     fa0:	9c 4f       	sbci	r25, 0xFC	; 252
     fa2:	28 17       	cp	r18, r24
     fa4:	39 07       	cpc	r19, r25
     fa6:	0c f4       	brge	.+2      	; 0xfaa <GYRO_Common+0x11c>
     fa8:	c9 01       	movw	r24, r18
     faa:	89 93       	st	Y+, r24
     fac:	99 93       	st	Y+, r25
     fae:	8d 93       	st	X+, r24
     fb0:	9d 93       	st	X+, r25
     fb2:	83 e0       	ldi	r24, 0x03	; 3
     fb4:	ed 36       	cpi	r30, 0x6D	; 109
     fb6:	f8 07       	cpc	r31, r24
     fb8:	11 f7       	brne	.-60     	; 0xf7e <GYRO_Common+0xf0>
     fba:	df 91       	pop	r29
     fbc:	cf 91       	pop	r28
     fbe:	1f 91       	pop	r17
     fc0:	0f 91       	pop	r16
     fc2:	ff 90       	pop	r15
     fc4:	ef 90       	pop	r14
     fc6:	df 90       	pop	r13
     fc8:	08 95       	ret

00000fca <gyro_get_data>:
     fca:	8f 92       	push	r8
     fcc:	9f 92       	push	r9
     fce:	af 92       	push	r10
     fd0:	bf 92       	push	r11
     fd2:	cf 92       	push	r12
     fd4:	df 92       	push	r13
     fd6:	ef 92       	push	r14
     fd8:	ff 92       	push	r15
     fda:	0f 93       	push	r16
     fdc:	1f 93       	push	r17
     fde:	cf 93       	push	r28
     fe0:	df 93       	push	r29
     fe2:	6c 01       	movw	r12, r24
     fe4:	5b 01       	movw	r10, r22
     fe6:	4a 01       	movw	r8, r20
     fe8:	8c e0       	ldi	r24, 0x0C	; 12
     fea:	80 93 b8 00 	sts	0x00B8, r24
     fee:	6d e1       	ldi	r22, 0x1D	; 29
     ff0:	88 e6       	ldi	r24, 0x68	; 104
     ff2:	0e 94 22 09 	call	0x1244	; 0x1244 <i2c_getSixRawADC>
     ff6:	45 e3       	ldi	r20, 0x35	; 53
     ff8:	e4 2e       	mov	r14, r20
     ffa:	43 e0       	ldi	r20, 0x03	; 3
     ffc:	f4 2e       	mov	r15, r20
     ffe:	30 91 45 03 	lds	r19, 0x0345
    1002:	20 e0       	ldi	r18, 0x00	; 0
    1004:	80 91 46 03 	lds	r24, 0x0346
    1008:	28 2b       	or	r18, r24
    100a:	35 95       	asr	r19
    100c:	27 95       	ror	r18
    100e:	35 95       	asr	r19
    1010:	27 95       	ror	r18
    1012:	f7 01       	movw	r30, r14
    1014:	31 83       	std	Z+1, r19	; 0x01
    1016:	20 83       	st	Z, r18
    1018:	07 e3       	ldi	r16, 0x37	; 55
    101a:	13 e0       	ldi	r17, 0x03	; 3
    101c:	30 91 47 03 	lds	r19, 0x0347
    1020:	20 e0       	ldi	r18, 0x00	; 0
    1022:	80 91 48 03 	lds	r24, 0x0348
    1026:	28 2b       	or	r18, r24
    1028:	35 95       	asr	r19
    102a:	27 95       	ror	r18
    102c:	35 95       	asr	r19
    102e:	27 95       	ror	r18
    1030:	f8 01       	movw	r30, r16
    1032:	31 83       	std	Z+1, r19	; 0x01
    1034:	20 83       	st	Z, r18
    1036:	c9 e3       	ldi	r28, 0x39	; 57
    1038:	d3 e0       	ldi	r29, 0x03	; 3
    103a:	30 91 49 03 	lds	r19, 0x0349
    103e:	20 e0       	ldi	r18, 0x00	; 0
    1040:	80 91 4a 03 	lds	r24, 0x034A
    1044:	28 2b       	or	r18, r24
    1046:	35 95       	asr	r19
    1048:	27 95       	ror	r18
    104a:	35 95       	asr	r19
    104c:	27 95       	ror	r18
    104e:	39 83       	std	Y+1, r19	; 0x01
    1050:	28 83       	st	Y, r18
    1052:	0e 94 47 07 	call	0xe8e	; 0xe8e <GYRO_Common>
    1056:	f7 01       	movw	r30, r14
    1058:	80 81       	ld	r24, Z
    105a:	91 81       	ldd	r25, Z+1	; 0x01
    105c:	f6 01       	movw	r30, r12
    105e:	91 83       	std	Z+1, r25	; 0x01
    1060:	80 83       	st	Z, r24
    1062:	f8 01       	movw	r30, r16
    1064:	80 81       	ld	r24, Z
    1066:	91 81       	ldd	r25, Z+1	; 0x01
    1068:	f5 01       	movw	r30, r10
    106a:	91 83       	std	Z+1, r25	; 0x01
    106c:	80 83       	st	Z, r24
    106e:	88 81       	ld	r24, Y
    1070:	99 81       	ldd	r25, Y+1	; 0x01
    1072:	f4 01       	movw	r30, r8
    1074:	91 83       	std	Z+1, r25	; 0x01
    1076:	80 83       	st	Z, r24
    1078:	df 91       	pop	r29
    107a:	cf 91       	pop	r28
    107c:	1f 91       	pop	r17
    107e:	0f 91       	pop	r16
    1080:	ff 90       	pop	r15
    1082:	ef 90       	pop	r14
    1084:	df 90       	pop	r13
    1086:	cf 90       	pop	r12
    1088:	bf 90       	pop	r11
    108a:	af 90       	pop	r10
    108c:	9f 90       	pop	r9
    108e:	8f 90       	pop	r8
    1090:	08 95       	ret

00001092 <constrain>:
    1092:	86 17       	cp	r24, r22
    1094:	97 07       	cpc	r25, r23
    1096:	2c f0       	brlt	.+10     	; 0x10a2 <constrain+0x10>
    1098:	ba 01       	movw	r22, r20
    109a:	84 17       	cp	r24, r20
    109c:	95 07       	cpc	r25, r21
    109e:	0c f4       	brge	.+2      	; 0x10a2 <constrain+0x10>
    10a0:	bc 01       	movw	r22, r24
    10a2:	cb 01       	movw	r24, r22
    10a4:	08 95       	ret

000010a6 <i2c_init>:
    10a6:	58 98       	cbi	0x0b, 0	; 11
    10a8:	59 98       	cbi	0x0b, 1	; 11
    10aa:	10 92 b9 00 	sts	0x00B9, r1
    10ae:	8c e0       	ldi	r24, 0x0C	; 12
    10b0:	80 93 b8 00 	sts	0x00B8, r24
    10b4:	84 e0       	ldi	r24, 0x04	; 4
    10b6:	80 93 bc 00 	sts	0x00BC, r24
    10ba:	08 95       	ret

000010bc <i2c_stop>:
    10bc:	84 e9       	ldi	r24, 0x94	; 148
    10be:	80 93 bc 00 	sts	0x00BC, r24
    10c2:	08 95       	ret

000010c4 <waitTransmissionI2C>:
    10c4:	8f ef       	ldi	r24, 0xFF	; 255
    10c6:	90 e0       	ldi	r25, 0x00	; 0
    10c8:	0e c0       	rjmp	.+28     	; 0x10e6 <waitTransmissionI2C+0x22>
    10ca:	01 97       	sbiw	r24, 0x01	; 1
    10cc:	61 f4       	brne	.+24     	; 0x10e6 <waitTransmissionI2C+0x22>
    10ce:	10 92 bc 00 	sts	0x00BC, r1
    10d2:	80 91 76 02 	lds	r24, 0x0276
    10d6:	90 91 77 02 	lds	r25, 0x0277
    10da:	01 96       	adiw	r24, 0x01	; 1
    10dc:	90 93 77 02 	sts	0x0277, r25
    10e0:	80 93 76 02 	sts	0x0276, r24
    10e4:	08 95       	ret
    10e6:	20 91 bc 00 	lds	r18, 0x00BC
    10ea:	27 ff       	sbrs	r18, 7
    10ec:	ee cf       	rjmp	.-36     	; 0x10ca <waitTransmissionI2C+0x6>
    10ee:	08 95       	ret

000010f0 <i2c_read>:
    10f0:	cf 93       	push	r28
    10f2:	c8 2f       	mov	r28, r24
    10f4:	88 23       	and	r24, r24
    10f6:	11 f0       	breq	.+4      	; 0x10fc <i2c_read+0xc>
    10f8:	84 ec       	ldi	r24, 0xC4	; 196
    10fa:	01 c0       	rjmp	.+2      	; 0x10fe <i2c_read+0xe>
    10fc:	84 e8       	ldi	r24, 0x84	; 132
    10fe:	80 93 bc 00 	sts	0x00BC, r24
    1102:	0e 94 62 08 	call	0x10c4	; 0x10c4 <waitTransmissionI2C>
    1106:	80 91 bb 00 	lds	r24, 0x00BB
    110a:	c1 11       	cpse	r28, r1
    110c:	03 c0       	rjmp	.+6      	; 0x1114 <i2c_read+0x24>
    110e:	94 e9       	ldi	r25, 0x94	; 148
    1110:	90 93 bc 00 	sts	0x00BC, r25
    1114:	cf 91       	pop	r28
    1116:	08 95       	ret

00001118 <i2c_readNak>:
    1118:	80 e0       	ldi	r24, 0x00	; 0
    111a:	0c 94 78 08 	jmp	0x10f0	; 0x10f0 <i2c_read>

0000111e <i2c_write>:
    111e:	80 93 bb 00 	sts	0x00BB, r24
    1122:	84 e8       	ldi	r24, 0x84	; 132
    1124:	80 93 bc 00 	sts	0x00BC, r24
    1128:	0c 94 62 08 	jmp	0x10c4	; 0x10c4 <waitTransmissionI2C>

0000112c <i2c_rep_start>:
    112c:	0f 93       	push	r16
    112e:	1f 93       	push	r17
    1130:	cf 93       	push	r28
    1132:	df 93       	push	r29
    1134:	1f 92       	push	r1
    1136:	cd b7       	in	r28, 0x3d	; 61
    1138:	de b7       	in	r29, 0x3e	; 62
    113a:	0c eb       	ldi	r16, 0xBC	; 188
    113c:	10 e0       	ldi	r17, 0x00	; 0
    113e:	94 ea       	ldi	r25, 0xA4	; 164
    1140:	f8 01       	movw	r30, r16
    1142:	90 83       	st	Z, r25
    1144:	89 83       	std	Y+1, r24	; 0x01
    1146:	0e 94 62 08 	call	0x10c4	; 0x10c4 <waitTransmissionI2C>
    114a:	89 81       	ldd	r24, Y+1	; 0x01
    114c:	80 93 bb 00 	sts	0x00BB, r24
    1150:	84 e8       	ldi	r24, 0x84	; 132
    1152:	f8 01       	movw	r30, r16
    1154:	80 83       	st	Z, r24
    1156:	0f 90       	pop	r0
    1158:	df 91       	pop	r29
    115a:	cf 91       	pop	r28
    115c:	1f 91       	pop	r17
    115e:	0f 91       	pop	r16
    1160:	0c 94 62 08 	jmp	0x10c4	; 0x10c4 <waitTransmissionI2C>

00001164 <i2c_readAck>:
    1164:	84 ec       	ldi	r24, 0xC4	; 196
    1166:	80 93 bc 00 	sts	0x00BC, r24
    116a:	0e 94 62 08 	call	0x10c4	; 0x10c4 <waitTransmissionI2C>
    116e:	80 91 bb 00 	lds	r24, 0x00BB
    1172:	08 95       	ret

00001174 <i2c_read_to_buf>:
    1174:	cf 92       	push	r12
    1176:	df 92       	push	r13
    1178:	ef 92       	push	r14
    117a:	ff 92       	push	r15
    117c:	0f 93       	push	r16
    117e:	1f 93       	push	r17
    1180:	cf 93       	push	r28
    1182:	df 93       	push	r29
    1184:	1f 92       	push	r1
    1186:	1f 92       	push	r1
    1188:	cd b7       	in	r28, 0x3d	; 61
    118a:	de b7       	in	r29, 0x3e	; 62
    118c:	7a 01       	movw	r14, r20
    118e:	88 0f       	add	r24, r24
    1190:	81 60       	ori	r24, 0x01	; 1
    1192:	69 83       	std	Y+1, r22	; 0x01
    1194:	7a 83       	std	Y+2, r23	; 0x02
    1196:	0e 94 96 08 	call	0x112c	; 0x112c <i2c_rep_start>
    119a:	87 01       	movw	r16, r14
    119c:	01 50       	subi	r16, 0x01	; 1
    119e:	11 09       	sbc	r17, r1
    11a0:	69 81       	ldd	r22, Y+1	; 0x01
    11a2:	c6 2e       	mov	r12, r22
    11a4:	7a 81       	ldd	r23, Y+2	; 0x02
    11a6:	d7 2e       	mov	r13, r23
    11a8:	0c c0       	rjmp	.+24     	; 0x11c2 <i2c_read_to_buf+0x4e>
    11aa:	81 e0       	ldi	r24, 0x01	; 1
    11ac:	01 15       	cp	r16, r1
    11ae:	11 05       	cpc	r17, r1
    11b0:	09 f4       	brne	.+2      	; 0x11b4 <i2c_read_to_buf+0x40>
    11b2:	80 e0       	ldi	r24, 0x00	; 0
    11b4:	0e 94 78 08 	call	0x10f0	; 0x10f0 <i2c_read>
    11b8:	f6 01       	movw	r30, r12
    11ba:	81 93       	st	Z+, r24
    11bc:	6f 01       	movw	r12, r30
    11be:	01 50       	subi	r16, 0x01	; 1
    11c0:	11 09       	sbc	r17, r1
    11c2:	0f 3f       	cpi	r16, 0xFF	; 255
    11c4:	ff ef       	ldi	r31, 0xFF	; 255
    11c6:	1f 07       	cpc	r17, r31
    11c8:	81 f7       	brne	.-32     	; 0x11aa <i2c_read_to_buf+0x36>
    11ca:	c7 01       	movw	r24, r14
    11cc:	0f 90       	pop	r0
    11ce:	0f 90       	pop	r0
    11d0:	df 91       	pop	r29
    11d2:	cf 91       	pop	r28
    11d4:	1f 91       	pop	r17
    11d6:	0f 91       	pop	r16
    11d8:	ff 90       	pop	r15
    11da:	ef 90       	pop	r14
    11dc:	df 90       	pop	r13
    11de:	cf 90       	pop	r12
    11e0:	08 95       	ret

000011e2 <i2c_read_reg_to_buf>:
    11e2:	cf 92       	push	r12
    11e4:	df 92       	push	r13
    11e6:	ff 92       	push	r15
    11e8:	0f 93       	push	r16
    11ea:	1f 93       	push	r17
    11ec:	cf 93       	push	r28
    11ee:	df 93       	push	r29
    11f0:	1f 92       	push	r1
    11f2:	cd b7       	in	r28, 0x3d	; 61
    11f4:	de b7       	in	r29, 0x3e	; 62
    11f6:	f8 2e       	mov	r15, r24
    11f8:	6a 01       	movw	r12, r20
    11fa:	89 01       	movw	r16, r18
    11fc:	88 0f       	add	r24, r24
    11fe:	69 83       	std	Y+1, r22	; 0x01
    1200:	0e 94 96 08 	call	0x112c	; 0x112c <i2c_rep_start>
    1204:	69 81       	ldd	r22, Y+1	; 0x01
    1206:	86 2f       	mov	r24, r22
    1208:	0e 94 8f 08 	call	0x111e	; 0x111e <i2c_write>
    120c:	a8 01       	movw	r20, r16
    120e:	b6 01       	movw	r22, r12
    1210:	8f 2d       	mov	r24, r15
    1212:	0f 90       	pop	r0
    1214:	df 91       	pop	r29
    1216:	cf 91       	pop	r28
    1218:	1f 91       	pop	r17
    121a:	0f 91       	pop	r16
    121c:	ff 90       	pop	r15
    121e:	df 90       	pop	r13
    1220:	cf 90       	pop	r12
    1222:	0c 94 ba 08 	jmp	0x1174	; 0x1174 <i2c_read_to_buf>

00001226 <swap_endianness>:
    1226:	fb 01       	movw	r30, r22
    1228:	31 97       	sbiw	r30, 0x01	; 1
    122a:	e8 0f       	add	r30, r24
    122c:	f9 1f       	adc	r31, r25
    122e:	dc 01       	movw	r26, r24
    1230:	05 c0       	rjmp	.+10     	; 0x123c <swap_endianness+0x16>
    1232:	8c 91       	ld	r24, X
    1234:	90 81       	ld	r25, Z
    1236:	9d 93       	st	X+, r25
    1238:	80 83       	st	Z, r24
    123a:	31 97       	sbiw	r30, 0x01	; 1
    123c:	ae 17       	cp	r26, r30
    123e:	bf 07       	cpc	r27, r31
    1240:	c0 f3       	brcs	.-16     	; 0x1232 <swap_endianness+0xc>
    1242:	08 95       	ret

00001244 <i2c_getSixRawADC>:
    1244:	26 e0       	ldi	r18, 0x06	; 6
    1246:	30 e0       	ldi	r19, 0x00	; 0
    1248:	45 e4       	ldi	r20, 0x45	; 69
    124a:	53 e0       	ldi	r21, 0x03	; 3
    124c:	0c 94 f1 08 	jmp	0x11e2	; 0x11e2 <i2c_read_reg_to_buf>

00001250 <i2c_writeReg>:
    1250:	cf 93       	push	r28
    1252:	df 93       	push	r29
    1254:	1f 92       	push	r1
    1256:	1f 92       	push	r1
    1258:	cd b7       	in	r28, 0x3d	; 61
    125a:	de b7       	in	r29, 0x3e	; 62
    125c:	88 0f       	add	r24, r24
    125e:	4a 83       	std	Y+2, r20	; 0x02
    1260:	69 83       	std	Y+1, r22	; 0x01
    1262:	0e 94 96 08 	call	0x112c	; 0x112c <i2c_rep_start>
    1266:	69 81       	ldd	r22, Y+1	; 0x01
    1268:	86 2f       	mov	r24, r22
    126a:	0e 94 8f 08 	call	0x111e	; 0x111e <i2c_write>
    126e:	4a 81       	ldd	r20, Y+2	; 0x02
    1270:	84 2f       	mov	r24, r20
    1272:	0e 94 8f 08 	call	0x111e	; 0x111e <i2c_write>
    1276:	84 e9       	ldi	r24, 0x94	; 148
    1278:	80 93 bc 00 	sts	0x00BC, r24
    127c:	0f 90       	pop	r0
    127e:	0f 90       	pop	r0
    1280:	df 91       	pop	r29
    1282:	cf 91       	pop	r28
    1284:	08 95       	ret

00001286 <i2c_readReg>:
    1286:	cf 93       	push	r28
    1288:	df 93       	push	r29
    128a:	1f 92       	push	r1
    128c:	cd b7       	in	r28, 0x3d	; 61
    128e:	de b7       	in	r29, 0x3e	; 62
    1290:	21 e0       	ldi	r18, 0x01	; 1
    1292:	30 e0       	ldi	r19, 0x00	; 0
    1294:	ae 01       	movw	r20, r28
    1296:	4f 5f       	subi	r20, 0xFF	; 255
    1298:	5f 4f       	sbci	r21, 0xFF	; 255
    129a:	0e 94 f1 08 	call	0x11e2	; 0x11e2 <i2c_read_reg_to_buf>
    129e:	89 81       	ldd	r24, Y+1	; 0x01
    12a0:	0f 90       	pop	r0
    12a2:	df 91       	pop	r29
    12a4:	cf 91       	pop	r28
    12a6:	08 95       	ret

000012a8 <init_input>:
    12a8:	10 92 07 01 	sts	0x0107, r1
    12ac:	8f ef       	ldi	r24, 0xFF	; 255
    12ae:	80 93 08 01 	sts	0x0108, r24
    12b2:	84 e0       	ldi	r24, 0x04	; 4
    12b4:	80 93 68 00 	sts	0x0068, r24
    12b8:	81 e0       	ldi	r24, 0x01	; 1
    12ba:	80 93 79 02 	sts	0x0279, r24
    12be:	80 93 6d 00 	sts	0x006D, r24
    12c2:	08 95       	ret

000012c4 <get_interrupt_pin_status>:
    12c4:	80 91 06 01 	lds	r24, 0x0106
    12c8:	90 91 79 02 	lds	r25, 0x0279
    12cc:	89 23       	and	r24, r25
    12ce:	90 91 ad 02 	lds	r25, 0x02AD
    12d2:	98 27       	eor	r25, r24
    12d4:	80 93 ad 02 	sts	0x02AD, r24
    12d8:	89 23       	and	r24, r25
    12da:	08 95       	ret

000012dc <__vector_11>:
    12dc:	1f 92       	push	r1
    12de:	0f 92       	push	r0
    12e0:	0f b6       	in	r0, 0x3f	; 63
    12e2:	0f 92       	push	r0
    12e4:	11 24       	eor	r1, r1
    12e6:	0b b6       	in	r0, 0x3b	; 59
    12e8:	0f 92       	push	r0
    12ea:	1b be       	out	0x3b, r1	; 59
    12ec:	2f 93       	push	r18
    12ee:	3f 93       	push	r19
    12f0:	4f 93       	push	r20
    12f2:	5f 93       	push	r21
    12f4:	6f 93       	push	r22
    12f6:	7f 93       	push	r23
    12f8:	8f 93       	push	r24
    12fa:	9f 93       	push	r25
    12fc:	af 93       	push	r26
    12fe:	bf 93       	push	r27
    1300:	cf 93       	push	r28
    1302:	df 93       	push	r29
    1304:	ef 93       	push	r30
    1306:	ff 93       	push	r31
    1308:	0e 94 62 09 	call	0x12c4	; 0x12c4 <get_interrupt_pin_status>
    130c:	88 23       	and	r24, r24
    130e:	81 f0       	breq	.+32     	; 0x1330 <__vector_11+0x54>
    1310:	c0 91 7a 02 	lds	r28, 0x027A
    1314:	d0 e0       	ldi	r29, 0x00	; 0
    1316:	0e 94 e3 0c 	call	0x19c6	; 0x19c6 <read_timer>
    131a:	fe 01       	movw	r30, r28
    131c:	ee 0f       	add	r30, r30
    131e:	ff 1f       	adc	r31, r31
    1320:	e5 56       	subi	r30, 0x65	; 101
    1322:	fd 4f       	sbci	r31, 0xFD	; 253
    1324:	91 83       	std	Z+1, r25	; 0x01
    1326:	80 83       	st	Z, r24
    1328:	81 e0       	ldi	r24, 0x01	; 1
    132a:	80 93 78 02 	sts	0x0278, r24
    132e:	52 c0       	rjmp	.+164    	; 0x13d4 <__vector_11+0xf8>
    1330:	80 91 78 02 	lds	r24, 0x0278
    1334:	88 23       	and	r24, r24
    1336:	09 f4       	brne	.+2      	; 0x133a <__vector_11+0x5e>
    1338:	4d c0       	rjmp	.+154    	; 0x13d4 <__vector_11+0xf8>
    133a:	c0 91 7a 02 	lds	r28, 0x027A
    133e:	d0 e0       	ldi	r29, 0x00	; 0
    1340:	0e 94 e3 0c 	call	0x19c6	; 0x19c6 <read_timer>
    1344:	fe 01       	movw	r30, r28
    1346:	ee 0f       	add	r30, r30
    1348:	ff 1f       	adc	r31, r31
    134a:	e5 57       	subi	r30, 0x75	; 117
    134c:	fd 4f       	sbci	r31, 0xFD	; 253
    134e:	91 83       	std	Z+1, r25	; 0x01
    1350:	80 83       	st	Z, r24
    1352:	80 91 7a 02 	lds	r24, 0x027A
    1356:	90 e0       	ldi	r25, 0x00	; 0
    1358:	88 0f       	add	r24, r24
    135a:	99 1f       	adc	r25, r25
    135c:	fc 01       	movw	r30, r24
    135e:	e5 57       	subi	r30, 0x75	; 117
    1360:	fd 4f       	sbci	r31, 0xFD	; 253
    1362:	40 81       	ld	r20, Z
    1364:	51 81       	ldd	r21, Z+1	; 0x01
    1366:	fc 01       	movw	r30, r24
    1368:	e5 56       	subi	r30, 0x65	; 101
    136a:	fd 4f       	sbci	r31, 0xFD	; 253
    136c:	20 81       	ld	r18, Z
    136e:	31 81       	ldd	r19, Z+1	; 0x01
    1370:	fc 01       	movw	r30, r24
    1372:	e5 58       	subi	r30, 0x85	; 133
    1374:	fd 4f       	sbci	r31, 0xFD	; 253
    1376:	42 17       	cp	r20, r18
    1378:	53 07       	cpc	r21, r19
    137a:	48 f0       	brcs	.+18     	; 0x138e <__vector_11+0xb2>
    137c:	42 1b       	sub	r20, r18
    137e:	53 0b       	sbc	r21, r19
    1380:	50 93 ac 02 	sts	0x02AC, r21
    1384:	40 93 ab 02 	sts	0x02AB, r20
    1388:	51 83       	std	Z+1, r21	; 0x01
    138a:	40 83       	st	Z, r20
    138c:	0a c0       	rjmp	.+20     	; 0x13a2 <__vector_11+0xc6>
    138e:	24 1b       	sub	r18, r20
    1390:	35 0b       	sbc	r19, r21
    1392:	20 95       	com	r18
    1394:	30 95       	com	r19
    1396:	30 93 ac 02 	sts	0x02AC, r19
    139a:	20 93 ab 02 	sts	0x02AB, r18
    139e:	31 83       	std	Z+1, r19	; 0x01
    13a0:	20 83       	st	Z, r18
    13a2:	10 92 78 02 	sts	0x0278, r1
    13a6:	80 91 7a 02 	lds	r24, 0x027A
    13aa:	8f 5f       	subi	r24, 0xFF	; 255
    13ac:	86 30       	cpi	r24, 0x06	; 6
    13ae:	18 f4       	brcc	.+6      	; 0x13b6 <__vector_11+0xda>
    13b0:	80 93 7a 02 	sts	0x027A, r24
    13b4:	02 c0       	rjmp	.+4      	; 0x13ba <__vector_11+0xde>
    13b6:	10 92 7a 02 	sts	0x027A, r1
    13ba:	81 e0       	ldi	r24, 0x01	; 1
    13bc:	90 e0       	ldi	r25, 0x00	; 0
    13be:	00 90 7a 02 	lds	r0, 0x027A
    13c2:	02 c0       	rjmp	.+4      	; 0x13c8 <__vector_11+0xec>
    13c4:	88 0f       	add	r24, r24
    13c6:	99 1f       	adc	r25, r25
    13c8:	0a 94       	dec	r0
    13ca:	e2 f7       	brpl	.-8      	; 0x13c4 <__vector_11+0xe8>
    13cc:	80 93 79 02 	sts	0x0279, r24
    13d0:	80 93 6d 00 	sts	0x006D, r24
    13d4:	ff 91       	pop	r31
    13d6:	ef 91       	pop	r30
    13d8:	df 91       	pop	r29
    13da:	cf 91       	pop	r28
    13dc:	bf 91       	pop	r27
    13de:	af 91       	pop	r26
    13e0:	9f 91       	pop	r25
    13e2:	8f 91       	pop	r24
    13e4:	7f 91       	pop	r23
    13e6:	6f 91       	pop	r22
    13e8:	5f 91       	pop	r21
    13ea:	4f 91       	pop	r20
    13ec:	3f 91       	pop	r19
    13ee:	2f 91       	pop	r18
    13f0:	0f 90       	pop	r0
    13f2:	0b be       	out	0x3b, r0	; 59
    13f4:	0f 90       	pop	r0
    13f6:	0f be       	out	0x3f, r0	; 63
    13f8:	0f 90       	pop	r0
    13fa:	1f 90       	pop	r1
    13fc:	18 95       	reti

000013fe <set_monitored_pin>:
    13fe:	80 93 79 02 	sts	0x0279, r24
    1402:	80 93 6d 00 	sts	0x006D, r24
    1406:	08 95       	ret

00001408 <stateUpdate>:
    1408:	2f 92       	push	r2
    140a:	3f 92       	push	r3
    140c:	4f 92       	push	r4
    140e:	5f 92       	push	r5
    1410:	6f 92       	push	r6
    1412:	7f 92       	push	r7
    1414:	8f 92       	push	r8
    1416:	9f 92       	push	r9
    1418:	af 92       	push	r10
    141a:	bf 92       	push	r11
    141c:	cf 92       	push	r12
    141e:	df 92       	push	r13
    1420:	ef 92       	push	r14
    1422:	ff 92       	push	r15
    1424:	0f 93       	push	r16
    1426:	1f 93       	push	r17
    1428:	cf 93       	push	r28
    142a:	df 93       	push	r29
    142c:	20 91 7d 03 	lds	r18, 0x037D
    1430:	30 91 7e 03 	lds	r19, 0x037E
    1434:	40 91 7f 03 	lds	r20, 0x037F
    1438:	50 91 80 03 	lds	r21, 0x0380
    143c:	0e 94 13 02 	call	0x426	; 0x426 <__subsf3>
    1440:	fb 01       	movw	r30, r22
    1442:	ae e2       	ldi	r26, 0x2E	; 46
    1444:	b2 e0       	ldi	r27, 0x02	; 2
    1446:	4d 90       	ld	r4, X+
    1448:	5d 90       	ld	r5, X+
    144a:	6d 90       	ld	r6, X+
    144c:	7c 90       	ld	r7, X
    144e:	a2 e3       	ldi	r26, 0x32	; 50
    1450:	b2 e0       	ldi	r27, 0x02	; 2
    1452:	8d 90       	ld	r8, X+
    1454:	9d 90       	ld	r9, X+
    1456:	ad 90       	ld	r10, X+
    1458:	bc 90       	ld	r11, X
    145a:	26 e3       	ldi	r18, 0x36	; 54
    145c:	22 2e       	mov	r2, r18
    145e:	22 e0       	ldi	r18, 0x02	; 2
    1460:	32 2e       	mov	r3, r18
    1462:	d1 01       	movw	r26, r2
    1464:	cd 90       	ld	r12, X+
    1466:	dd 90       	ld	r13, X+
    1468:	ed 90       	ld	r14, X+
    146a:	fc 90       	ld	r15, X
    146c:	46 2f       	mov	r20, r22
    146e:	5f 2f       	mov	r21, r31
    1470:	68 2f       	mov	r22, r24
    1472:	79 2f       	mov	r23, r25
    1474:	40 93 79 03 	sts	0x0379, r20
    1478:	50 93 7a 03 	sts	0x037A, r21
    147c:	60 93 7b 03 	sts	0x037B, r22
    1480:	70 93 7c 03 	sts	0x037C, r23
    1484:	2a e0       	ldi	r18, 0x0A	; 10
    1486:	37 ed       	ldi	r19, 0xD7	; 215
    1488:	43 ea       	ldi	r20, 0xA3	; 163
    148a:	5c e3       	ldi	r21, 0x3C	; 60
    148c:	6e 2f       	mov	r22, r30
    148e:	7f 2f       	mov	r23, r31
    1490:	0e 94 43 02 	call	0x486	; 0x486 <__mulsf3>
    1494:	9b 01       	movw	r18, r22
    1496:	ac 01       	movw	r20, r24
    1498:	60 91 81 03 	lds	r22, 0x0381
    149c:	70 91 82 03 	lds	r23, 0x0382
    14a0:	80 91 83 03 	lds	r24, 0x0383
    14a4:	90 91 84 03 	lds	r25, 0x0384
    14a8:	0e 94 e7 01 	call	0x3ce	; 0x3ce <__addsf3>
    14ac:	60 93 81 03 	sts	0x0381, r22
    14b0:	70 93 82 03 	sts	0x0382, r23
    14b4:	80 93 83 03 	sts	0x0383, r24
    14b8:	90 93 84 03 	sts	0x0384, r25
    14bc:	ca e2       	ldi	r28, 0x2A	; 42
    14be:	d2 e0       	ldi	r29, 0x02	; 2
    14c0:	a3 01       	movw	r20, r6
    14c2:	92 01       	movw	r18, r4
    14c4:	6f e6       	ldi	r22, 0x6F	; 111
    14c6:	72 e1       	ldi	r23, 0x12	; 18
    14c8:	83 e8       	ldi	r24, 0x83	; 131
    14ca:	9a e3       	ldi	r25, 0x3A	; 58
    14cc:	0e 94 13 02 	call	0x426	; 0x426 <__subsf3>
    14d0:	a5 01       	movw	r20, r10
    14d2:	94 01       	movw	r18, r8
    14d4:	0e 94 13 02 	call	0x426	; 0x426 <__subsf3>
    14d8:	2a e0       	ldi	r18, 0x0A	; 10
    14da:	37 ed       	ldi	r19, 0xD7	; 215
    14dc:	43 ea       	ldi	r20, 0xA3	; 163
    14de:	5c e3       	ldi	r21, 0x3C	; 60
    14e0:	0e 94 43 02 	call	0x486	; 0x486 <__mulsf3>
    14e4:	9b 01       	movw	r18, r22
    14e6:	ac 01       	movw	r20, r24
    14e8:	68 81       	ld	r22, Y
    14ea:	79 81       	ldd	r23, Y+1	; 0x01
    14ec:	8a 81       	ldd	r24, Y+2	; 0x02
    14ee:	9b 81       	ldd	r25, Y+3	; 0x03
    14f0:	0e 94 e7 01 	call	0x3ce	; 0x3ce <__addsf3>
    14f4:	68 83       	st	Y, r22
    14f6:	79 83       	std	Y+1, r23	; 0x01
    14f8:	8a 83       	std	Y+2, r24	; 0x02
    14fa:	9b 83       	std	Y+3, r25	; 0x03
    14fc:	c7 01       	movw	r24, r14
    14fe:	b6 01       	movw	r22, r12
    1500:	90 58       	subi	r25, 0x80	; 128
    1502:	2a e0       	ldi	r18, 0x0A	; 10
    1504:	37 ed       	ldi	r19, 0xD7	; 215
    1506:	43 ea       	ldi	r20, 0xA3	; 163
    1508:	5c e3       	ldi	r21, 0x3C	; 60
    150a:	0e 94 43 02 	call	0x486	; 0x486 <__mulsf3>
    150e:	8b 01       	movw	r16, r22
    1510:	d8 2f       	mov	r29, r24
    1512:	c9 2f       	mov	r28, r25
    1514:	76 2f       	mov	r23, r22
    1516:	ce 01       	movw	r24, r28
    1518:	27 2f       	mov	r18, r23
    151a:	31 2f       	mov	r19, r17
    151c:	49 2f       	mov	r20, r25
    151e:	58 2f       	mov	r21, r24
    1520:	c3 01       	movw	r24, r6
    1522:	b2 01       	movw	r22, r4
    1524:	0e 94 e7 01 	call	0x3ce	; 0x3ce <__addsf3>
    1528:	ee e2       	ldi	r30, 0x2E	; 46
    152a:	f2 e0       	ldi	r31, 0x02	; 2
    152c:	60 83       	st	Z, r22
    152e:	71 83       	std	Z+1, r23	; 0x01
    1530:	82 83       	std	Z+2, r24	; 0x02
    1532:	93 83       	std	Z+3, r25	; 0x03
    1534:	ce 01       	movw	r24, r28
    1536:	20 2f       	mov	r18, r16
    1538:	31 2f       	mov	r19, r17
    153a:	49 2f       	mov	r20, r25
    153c:	58 2f       	mov	r21, r24
    153e:	c5 01       	movw	r24, r10
    1540:	b4 01       	movw	r22, r8
    1542:	0e 94 e7 01 	call	0x3ce	; 0x3ce <__addsf3>
    1546:	a2 e3       	ldi	r26, 0x32	; 50
    1548:	b2 e0       	ldi	r27, 0x02	; 2
    154a:	6d 93       	st	X+, r22
    154c:	7d 93       	st	X+, r23
    154e:	8d 93       	st	X+, r24
    1550:	9c 93       	st	X, r25
    1552:	13 97       	sbiw	r26, 0x03	; 3
    1554:	22 e8       	ldi	r18, 0x82	; 130
    1556:	38 ea       	ldi	r19, 0xA8	; 168
    1558:	4b ef       	ldi	r20, 0xFB	; 251
    155a:	57 e3       	ldi	r21, 0x37	; 55
    155c:	c7 01       	movw	r24, r14
    155e:	b6 01       	movw	r22, r12
    1560:	0e 94 e7 01 	call	0x3ce	; 0x3ce <__addsf3>
    1564:	f1 01       	movw	r30, r2
    1566:	60 83       	st	Z, r22
    1568:	71 83       	std	Z+1, r23	; 0x01
    156a:	82 83       	std	Z+2, r24	; 0x02
    156c:	93 83       	std	Z+3, r25	; 0x03
    156e:	df 91       	pop	r29
    1570:	cf 91       	pop	r28
    1572:	1f 91       	pop	r17
    1574:	0f 91       	pop	r16
    1576:	ff 90       	pop	r15
    1578:	ef 90       	pop	r14
    157a:	df 90       	pop	r13
    157c:	cf 90       	pop	r12
    157e:	bf 90       	pop	r11
    1580:	af 90       	pop	r10
    1582:	9f 90       	pop	r9
    1584:	8f 90       	pop	r8
    1586:	7f 90       	pop	r7
    1588:	6f 90       	pop	r6
    158a:	5f 90       	pop	r5
    158c:	4f 90       	pop	r4
    158e:	3f 90       	pop	r3
    1590:	2f 90       	pop	r2
    1592:	08 95       	ret

00001594 <kalmanUpdate>:
    1594:	2f 92       	push	r2
    1596:	3f 92       	push	r3
    1598:	4f 92       	push	r4
    159a:	5f 92       	push	r5
    159c:	6f 92       	push	r6
    159e:	7f 92       	push	r7
    15a0:	8f 92       	push	r8
    15a2:	9f 92       	push	r9
    15a4:	af 92       	push	r10
    15a6:	bf 92       	push	r11
    15a8:	cf 92       	push	r12
    15aa:	df 92       	push	r13
    15ac:	ef 92       	push	r14
    15ae:	ff 92       	push	r15
    15b0:	0f 93       	push	r16
    15b2:	1f 93       	push	r17
    15b4:	cf 93       	push	r28
    15b6:	df 93       	push	r29
    15b8:	cd b7       	in	r28, 0x3d	; 61
    15ba:	de b7       	in	r29, 0x3e	; 62
    15bc:	2e 97       	sbiw	r28, 0x0e	; 14
    15be:	0f b6       	in	r0, 0x3f	; 63
    15c0:	f8 94       	cli
    15c2:	de bf       	out	0x3e, r29	; 62
    15c4:	0f be       	out	0x3f, r0	; 63
    15c6:	cd bf       	out	0x3d, r28	; 61
    15c8:	20 91 81 03 	lds	r18, 0x0381
    15cc:	30 91 82 03 	lds	r19, 0x0382
    15d0:	40 91 83 03 	lds	r20, 0x0383
    15d4:	50 91 84 03 	lds	r21, 0x0384
    15d8:	2b 83       	std	Y+3, r18	; 0x03
    15da:	3c 83       	std	Y+4, r19	; 0x04
    15dc:	4d 83       	std	Y+5, r20	; 0x05
    15de:	5e 83       	std	Y+6, r21	; 0x06
    15e0:	0e 94 13 02 	call	0x426	; 0x426 <__subsf3>
    15e4:	6f 83       	std	Y+7, r22	; 0x07
    15e6:	78 87       	std	Y+8, r23	; 0x08
    15e8:	89 87       	std	Y+9, r24	; 0x09
    15ea:	9a 87       	std	Y+10, r25	; 0x0a
    15ec:	ea e2       	ldi	r30, 0x2A	; 42
    15ee:	f2 e0       	ldi	r31, 0x02	; 2
    15f0:	c0 80       	ld	r12, Z
    15f2:	d1 80       	ldd	r13, Z+1	; 0x01
    15f4:	e2 80       	ldd	r14, Z+2	; 0x02
    15f6:	f3 80       	ldd	r15, Z+3	; 0x03
    15f8:	e2 e3       	ldi	r30, 0x32	; 50
    15fa:	f2 e0       	ldi	r31, 0x02	; 2
    15fc:	40 80       	ld	r4, Z
    15fe:	51 80       	ldd	r5, Z+1	; 0x01
    1600:	62 80       	ldd	r6, Z+2	; 0x02
    1602:	73 80       	ldd	r7, Z+3	; 0x03
    1604:	2f e6       	ldi	r18, 0x6F	; 111
    1606:	32 e1       	ldi	r19, 0x12	; 18
    1608:	43 e8       	ldi	r20, 0x83	; 131
    160a:	5a e3       	ldi	r21, 0x3A	; 58
    160c:	c7 01       	movw	r24, r14
    160e:	b6 01       	movw	r22, r12
    1610:	0e 94 e7 01 	call	0x3ce	; 0x3ce <__addsf3>
    1614:	8b 01       	movw	r16, r22
    1616:	5c 01       	movw	r10, r24
    1618:	76 2f       	mov	r23, r22
    161a:	27 2f       	mov	r18, r23
    161c:	31 2f       	mov	r19, r17
    161e:	4a 2d       	mov	r20, r10
    1620:	5b 2d       	mov	r21, r11
    1622:	c7 01       	movw	r24, r14
    1624:	b6 01       	movw	r22, r12
    1626:	0e 94 28 03 	call	0x650	; 0x650 <__divsf3>
    162a:	1b 01       	movw	r2, r22
    162c:	89 83       	std	Y+1, r24	; 0x01
    162e:	9a 83       	std	Y+2, r25	; 0x02
    1630:	20 2f       	mov	r18, r16
    1632:	31 2f       	mov	r19, r17
    1634:	4a 2d       	mov	r20, r10
    1636:	5b 2d       	mov	r21, r11
    1638:	c3 01       	movw	r24, r6
    163a:	b2 01       	movw	r22, r4
    163c:	0e 94 28 03 	call	0x650	; 0x650 <__divsf3>
    1640:	8b 01       	movw	r16, r22
    1642:	8e 87       	std	Y+14, r24	; 0x0e
    1644:	9b 87       	std	Y+11, r25	; 0x0b
    1646:	ee e2       	ldi	r30, 0x2E	; 46
    1648:	f2 e0       	ldi	r31, 0x02	; 2
    164a:	80 80       	ld	r8, Z
    164c:	91 80       	ldd	r9, Z+1	; 0x01
    164e:	a2 80       	ldd	r10, Z+2	; 0x02
    1650:	b3 80       	ldd	r11, Z+3	; 0x03
    1652:	a7 01       	movw	r20, r14
    1654:	96 01       	movw	r18, r12
    1656:	e9 81       	ldd	r30, Y+1	; 0x01
    1658:	fa 81       	ldd	r31, Y+2	; 0x02
    165a:	62 2d       	mov	r22, r2
    165c:	73 2d       	mov	r23, r3
    165e:	cf 01       	movw	r24, r30
    1660:	0e 94 43 02 	call	0x486	; 0x486 <__mulsf3>
    1664:	9b 01       	movw	r18, r22
    1666:	ac 01       	movw	r20, r24
    1668:	c7 01       	movw	r24, r14
    166a:	b6 01       	movw	r22, r12
    166c:	0e 94 13 02 	call	0x426	; 0x426 <__subsf3>
    1670:	ea e2       	ldi	r30, 0x2A	; 42
    1672:	f2 e0       	ldi	r31, 0x02	; 2
    1674:	60 83       	st	Z, r22
    1676:	71 83       	std	Z+1, r23	; 0x01
    1678:	82 83       	std	Z+2, r24	; 0x02
    167a:	93 83       	std	Z+3, r25	; 0x03
    167c:	a5 01       	movw	r20, r10
    167e:	94 01       	movw	r18, r8
    1680:	e9 81       	ldd	r30, Y+1	; 0x01
    1682:	fa 81       	ldd	r31, Y+2	; 0x02
    1684:	62 2d       	mov	r22, r2
    1686:	73 2d       	mov	r23, r3
    1688:	cf 01       	movw	r24, r30
    168a:	0e 94 43 02 	call	0x486	; 0x486 <__mulsf3>
    168e:	9b 01       	movw	r18, r22
    1690:	ac 01       	movw	r20, r24
    1692:	c5 01       	movw	r24, r10
    1694:	b4 01       	movw	r22, r8
    1696:	0e 94 13 02 	call	0x426	; 0x426 <__subsf3>
    169a:	ee e2       	ldi	r30, 0x2E	; 46
    169c:	f2 e0       	ldi	r31, 0x02	; 2
    169e:	60 83       	st	Z, r22
    16a0:	71 83       	std	Z+1, r23	; 0x01
    16a2:	82 83       	std	Z+2, r24	; 0x02
    16a4:	93 83       	std	Z+3, r25	; 0x03
    16a6:	a7 01       	movw	r20, r14
    16a8:	96 01       	movw	r18, r12
    16aa:	fe 85       	ldd	r31, Y+14	; 0x0e
    16ac:	eb 85       	ldd	r30, Y+11	; 0x0b
    16ae:	60 2f       	mov	r22, r16
    16b0:	71 2f       	mov	r23, r17
    16b2:	8f 2f       	mov	r24, r31
    16b4:	9e 2f       	mov	r25, r30
    16b6:	0e 94 43 02 	call	0x486	; 0x486 <__mulsf3>
    16ba:	9b 01       	movw	r18, r22
    16bc:	ac 01       	movw	r20, r24
    16be:	c3 01       	movw	r24, r6
    16c0:	b2 01       	movw	r22, r4
    16c2:	0e 94 13 02 	call	0x426	; 0x426 <__subsf3>
    16c6:	e2 e3       	ldi	r30, 0x32	; 50
    16c8:	f2 e0       	ldi	r31, 0x02	; 2
    16ca:	60 83       	st	Z, r22
    16cc:	71 83       	std	Z+1, r23	; 0x01
    16ce:	82 83       	std	Z+2, r24	; 0x02
    16d0:	93 83       	std	Z+3, r25	; 0x03
    16d2:	36 e3       	ldi	r19, 0x36	; 54
    16d4:	e3 2e       	mov	r14, r19
    16d6:	32 e0       	ldi	r19, 0x02	; 2
    16d8:	f3 2e       	mov	r15, r19
    16da:	a5 01       	movw	r20, r10
    16dc:	94 01       	movw	r18, r8
    16de:	fe 85       	ldd	r31, Y+14	; 0x0e
    16e0:	eb 85       	ldd	r30, Y+11	; 0x0b
    16e2:	60 2f       	mov	r22, r16
    16e4:	71 2f       	mov	r23, r17
    16e6:	8f 2f       	mov	r24, r31
    16e8:	9e 2f       	mov	r25, r30
    16ea:	0e 94 43 02 	call	0x486	; 0x486 <__mulsf3>
    16ee:	9b 01       	movw	r18, r22
    16f0:	ac 01       	movw	r20, r24
    16f2:	f7 01       	movw	r30, r14
    16f4:	60 81       	ld	r22, Z
    16f6:	71 81       	ldd	r23, Z+1	; 0x01
    16f8:	82 81       	ldd	r24, Z+2	; 0x02
    16fa:	93 81       	ldd	r25, Z+3	; 0x03
    16fc:	0e 94 13 02 	call	0x426	; 0x426 <__subsf3>
    1700:	f7 01       	movw	r30, r14
    1702:	60 83       	st	Z, r22
    1704:	71 83       	std	Z+1, r23	; 0x01
    1706:	82 83       	std	Z+2, r24	; 0x02
    1708:	93 83       	std	Z+3, r25	; 0x03
    170a:	7f 81       	ldd	r23, Y+7	; 0x07
    170c:	68 85       	ldd	r22, Y+8	; 0x08
    170e:	99 85       	ldd	r25, Y+9	; 0x09
    1710:	8a 85       	ldd	r24, Y+10	; 0x0a
    1712:	27 2f       	mov	r18, r23
    1714:	36 2f       	mov	r19, r22
    1716:	49 2f       	mov	r20, r25
    1718:	58 2f       	mov	r21, r24
    171a:	f9 80       	ldd	r15, Y+1	; 0x01
    171c:	ea 80       	ldd	r14, Y+2	; 0x02
    171e:	62 2d       	mov	r22, r2
    1720:	73 2d       	mov	r23, r3
    1722:	8f 2d       	mov	r24, r15
    1724:	9e 2d       	mov	r25, r14
    1726:	0e 94 43 02 	call	0x486	; 0x486 <__mulsf3>
    172a:	9b 01       	movw	r18, r22
    172c:	ac 01       	movw	r20, r24
    172e:	6b 81       	ldd	r22, Y+3	; 0x03
    1730:	7c 81       	ldd	r23, Y+4	; 0x04
    1732:	8d 81       	ldd	r24, Y+5	; 0x05
    1734:	9e 81       	ldd	r25, Y+6	; 0x06
    1736:	0e 94 e7 01 	call	0x3ce	; 0x3ce <__addsf3>
    173a:	60 93 81 03 	sts	0x0381, r22
    173e:	70 93 82 03 	sts	0x0382, r23
    1742:	80 93 83 03 	sts	0x0383, r24
    1746:	90 93 84 03 	sts	0x0384, r25
    174a:	7f 81       	ldd	r23, Y+7	; 0x07
    174c:	68 85       	ldd	r22, Y+8	; 0x08
    174e:	99 85       	ldd	r25, Y+9	; 0x09
    1750:	8a 85       	ldd	r24, Y+10	; 0x0a
    1752:	27 2f       	mov	r18, r23
    1754:	36 2f       	mov	r19, r22
    1756:	49 2f       	mov	r20, r25
    1758:	58 2f       	mov	r21, r24
    175a:	fe 85       	ldd	r31, Y+14	; 0x0e
    175c:	eb 85       	ldd	r30, Y+11	; 0x0b
    175e:	60 2f       	mov	r22, r16
    1760:	71 2f       	mov	r23, r17
    1762:	8f 2f       	mov	r24, r31
    1764:	9e 2f       	mov	r25, r30
    1766:	0e 94 43 02 	call	0x486	; 0x486 <__mulsf3>
    176a:	9b 01       	movw	r18, r22
    176c:	ac 01       	movw	r20, r24
    176e:	60 91 7d 03 	lds	r22, 0x037D
    1772:	70 91 7e 03 	lds	r23, 0x037E
    1776:	80 91 7f 03 	lds	r24, 0x037F
    177a:	90 91 80 03 	lds	r25, 0x0380
    177e:	0e 94 e7 01 	call	0x3ce	; 0x3ce <__addsf3>
    1782:	60 93 7d 03 	sts	0x037D, r22
    1786:	70 93 7e 03 	sts	0x037E, r23
    178a:	80 93 7f 03 	sts	0x037F, r24
    178e:	90 93 80 03 	sts	0x0380, r25
    1792:	2e 96       	adiw	r28, 0x0e	; 14
    1794:	0f b6       	in	r0, 0x3f	; 63
    1796:	f8 94       	cli
    1798:	de bf       	out	0x3e, r29	; 62
    179a:	0f be       	out	0x3f, r0	; 63
    179c:	cd bf       	out	0x3d, r28	; 61
    179e:	df 91       	pop	r29
    17a0:	cf 91       	pop	r28
    17a2:	1f 91       	pop	r17
    17a4:	0f 91       	pop	r16
    17a6:	ff 90       	pop	r15
    17a8:	ef 90       	pop	r14
    17aa:	df 90       	pop	r13
    17ac:	cf 90       	pop	r12
    17ae:	bf 90       	pop	r11
    17b0:	af 90       	pop	r10
    17b2:	9f 90       	pop	r9
    17b4:	8f 90       	pop	r8
    17b6:	7f 90       	pop	r7
    17b8:	6f 90       	pop	r6
    17ba:	5f 90       	pop	r5
    17bc:	4f 90       	pop	r4
    17be:	3f 90       	pop	r3
    17c0:	2f 90       	pop	r2
    17c2:	08 95       	ret

000017c4 <init_pwm>:
    17c4:	80 e1       	ldi	r24, 0x10	; 16
    17c6:	84 b9       	out	0x04, r24	; 4
    17c8:	e1 e0       	ldi	r30, 0x01	; 1
    17ca:	f1 e0       	ldi	r31, 0x01	; 1
    17cc:	80 e4       	ldi	r24, 0x40	; 64
    17ce:	80 83       	st	Z, r24
    17d0:	81 ea       	ldi	r24, 0xA1	; 161
    17d2:	80 93 b0 00 	sts	0x00B0, r24
    17d6:	86 e0       	ldi	r24, 0x06	; 6
    17d8:	80 93 b1 00 	sts	0x00B1, r24
    17dc:	88 e3       	ldi	r24, 0x38	; 56
    17de:	80 83       	st	Z, r24
    17e0:	3a ea       	ldi	r19, 0xAA	; 170
    17e2:	30 93 a0 00 	sts	0x00A0, r19
    17e6:	21 e1       	ldi	r18, 0x11	; 17
    17e8:	20 93 a1 00 	sts	0x00A1, r18
    17ec:	80 e7       	ldi	r24, 0x70	; 112
    17ee:	95 e4       	ldi	r25, 0x45	; 69
    17f0:	90 93 a7 00 	sts	0x00A7, r25
    17f4:	80 93 a6 00 	sts	0x00A6, r24
    17f8:	10 92 a9 00 	sts	0x00A9, r1
    17fc:	10 92 a8 00 	sts	0x00A8, r1
    1800:	10 92 ab 00 	sts	0x00AB, r1
    1804:	10 92 aa 00 	sts	0x00AA, r1
    1808:	10 92 ad 00 	sts	0x00AD, r1
    180c:	10 92 ac 00 	sts	0x00AC, r1
    1810:	8d b1       	in	r24, 0x0d	; 13
    1812:	88 63       	ori	r24, 0x38	; 56
    1814:	8d b9       	out	0x0d, r24	; 13
    1816:	30 93 90 00 	sts	0x0090, r19
    181a:	20 93 91 00 	sts	0x0091, r18
    181e:	81 e7       	ldi	r24, 0x71	; 113
    1820:	95 e4       	ldi	r25, 0x45	; 69
    1822:	90 93 97 00 	sts	0x0097, r25
    1826:	80 93 96 00 	sts	0x0096, r24
    182a:	10 92 99 00 	sts	0x0099, r1
    182e:	10 92 98 00 	sts	0x0098, r1
    1832:	10 92 9b 00 	sts	0x009B, r1
    1836:	10 92 9a 00 	sts	0x009A, r1
    183a:	10 92 9d 00 	sts	0x009D, r1
    183e:	10 92 9c 00 	sts	0x009C, r1
    1842:	ea e0       	ldi	r30, 0x0A	; 10
    1844:	f1 e0       	ldi	r31, 0x01	; 1
    1846:	40 81       	ld	r20, Z
    1848:	48 63       	ori	r20, 0x38	; 56
    184a:	40 83       	st	Z, r20
    184c:	30 93 20 01 	sts	0x0120, r19
    1850:	20 93 21 01 	sts	0x0121, r18
    1854:	90 93 27 01 	sts	0x0127, r25
    1858:	80 93 26 01 	sts	0x0126, r24
    185c:	10 92 29 01 	sts	0x0129, r1
    1860:	10 92 28 01 	sts	0x0128, r1
    1864:	10 92 2b 01 	sts	0x012B, r1
    1868:	10 92 2a 01 	sts	0x012A, r1
    186c:	10 92 2d 01 	sts	0x012D, r1
    1870:	10 92 2c 01 	sts	0x012C, r1
    1874:	08 95       	ret

00001876 <set_pwm>:
    1876:	8b 30       	cpi	r24, 0x0B	; 11
    1878:	08 f0       	brcs	.+2      	; 0x187c <set_pwm+0x6>
    187a:	6a c0       	rjmp	.+212    	; 0x1950 <set_pwm+0xda>
    187c:	61 15       	cp	r22, r1
    187e:	71 05       	cpc	r23, r1
    1880:	b1 f0       	breq	.+44     	; 0x18ae <set_pwm+0x38>
    1882:	9b 01       	movw	r18, r22
    1884:	82 30       	cpi	r24, 0x02	; 2
    1886:	38 f4       	brcc	.+14     	; 0x1896 <set_pwm+0x20>
    1888:	2e 51       	subi	r18, 0x1E	; 30
    188a:	31 09       	sbc	r19, r1
    188c:	2f 31       	cpi	r18, 0x1F	; 31
    188e:	31 05       	cpc	r19, r1
    1890:	08 f0       	brcs	.+2      	; 0x1894 <set_pwm+0x1e>
    1892:	5e c0       	rjmp	.+188    	; 0x1950 <set_pwm+0xda>
    1894:	0e c0       	rjmp	.+28     	; 0x18b2 <set_pwm+0x3c>
    1896:	28 5e       	subi	r18, 0xE8	; 232
    1898:	33 40       	sbci	r19, 0x03	; 3
    189a:	29 3e       	cpi	r18, 0xE9	; 233
    189c:	33 40       	sbci	r19, 0x03	; 3
    189e:	08 f0       	brcs	.+2      	; 0x18a2 <set_pwm+0x2c>
    18a0:	57 c0       	rjmp	.+174    	; 0x1950 <set_pwm+0xda>
    18a2:	93 e0       	ldi	r25, 0x03	; 3
    18a4:	66 0f       	add	r22, r22
    18a6:	77 1f       	adc	r23, r23
    18a8:	9a 95       	dec	r25
    18aa:	e1 f7       	brne	.-8      	; 0x18a4 <set_pwm+0x2e>
    18ac:	02 c0       	rjmp	.+4      	; 0x18b2 <set_pwm+0x3c>
    18ae:	60 e0       	ldi	r22, 0x00	; 0
    18b0:	70 e0       	ldi	r23, 0x00	; 0
    18b2:	85 30       	cpi	r24, 0x05	; 5
    18b4:	b9 f1       	breq	.+110    	; 0x1924 <set_pwm+0xae>
    18b6:	58 f4       	brcc	.+22     	; 0x18ce <set_pwm+0x58>
    18b8:	82 30       	cpi	r24, 0x02	; 2
    18ba:	d9 f0       	breq	.+54     	; 0x18f2 <set_pwm+0x7c>
    18bc:	18 f4       	brcc	.+6      	; 0x18c4 <set_pwm+0x4e>
    18be:	81 30       	cpi	r24, 0x01	; 1
    18c0:	91 f4       	brne	.+36     	; 0x18e6 <set_pwm+0x70>
    18c2:	14 c0       	rjmp	.+40     	; 0x18ec <set_pwm+0x76>
    18c4:	83 30       	cpi	r24, 0x03	; 3
    18c6:	d1 f0       	breq	.+52     	; 0x18fc <set_pwm+0x86>
    18c8:	84 30       	cpi	r24, 0x04	; 4
    18ca:	69 f4       	brne	.+26     	; 0x18e6 <set_pwm+0x70>
    18cc:	1c c0       	rjmp	.+56     	; 0x1906 <set_pwm+0x90>
    18ce:	88 30       	cpi	r24, 0x08	; 8
    18d0:	71 f1       	breq	.+92     	; 0x192e <set_pwm+0xb8>
    18d2:	28 f4       	brcc	.+10     	; 0x18de <set_pwm+0x68>
    18d4:	86 30       	cpi	r24, 0x06	; 6
    18d6:	e1 f0       	breq	.+56     	; 0x1910 <set_pwm+0x9a>
    18d8:	87 30       	cpi	r24, 0x07	; 7
    18da:	29 f4       	brne	.+10     	; 0x18e6 <set_pwm+0x70>
    18dc:	1e c0       	rjmp	.+60     	; 0x191a <set_pwm+0xa4>
    18de:	89 30       	cpi	r24, 0x09	; 9
    18e0:	59 f1       	breq	.+86     	; 0x1938 <set_pwm+0xc2>
    18e2:	8a 30       	cpi	r24, 0x0A	; 10
    18e4:	71 f1       	breq	.+92     	; 0x1942 <set_pwm+0xcc>
    18e6:	60 93 b3 00 	sts	0x00B3, r22
    18ea:	2f c0       	rjmp	.+94     	; 0x194a <set_pwm+0xd4>
    18ec:	60 93 b4 00 	sts	0x00B4, r22
    18f0:	2c c0       	rjmp	.+88     	; 0x194a <set_pwm+0xd4>
    18f2:	70 93 ad 00 	sts	0x00AD, r23
    18f6:	60 93 ac 00 	sts	0x00AC, r22
    18fa:	27 c0       	rjmp	.+78     	; 0x194a <set_pwm+0xd4>
    18fc:	70 93 ab 00 	sts	0x00AB, r23
    1900:	60 93 aa 00 	sts	0x00AA, r22
    1904:	22 c0       	rjmp	.+68     	; 0x194a <set_pwm+0xd4>
    1906:	70 93 a9 00 	sts	0x00A9, r23
    190a:	60 93 a8 00 	sts	0x00A8, r22
    190e:	1d c0       	rjmp	.+58     	; 0x194a <set_pwm+0xd4>
    1910:	70 93 9d 00 	sts	0x009D, r23
    1914:	60 93 9c 00 	sts	0x009C, r22
    1918:	18 c0       	rjmp	.+48     	; 0x194a <set_pwm+0xd4>
    191a:	70 93 9b 00 	sts	0x009B, r23
    191e:	60 93 9a 00 	sts	0x009A, r22
    1922:	13 c0       	rjmp	.+38     	; 0x194a <set_pwm+0xd4>
    1924:	70 93 99 00 	sts	0x0099, r23
    1928:	60 93 98 00 	sts	0x0098, r22
    192c:	0e c0       	rjmp	.+28     	; 0x194a <set_pwm+0xd4>
    192e:	70 93 2d 01 	sts	0x012D, r23
    1932:	60 93 2c 01 	sts	0x012C, r22
    1936:	09 c0       	rjmp	.+18     	; 0x194a <set_pwm+0xd4>
    1938:	70 93 2b 01 	sts	0x012B, r23
    193c:	60 93 2a 01 	sts	0x012A, r22
    1940:	04 c0       	rjmp	.+8      	; 0x194a <set_pwm+0xd4>
    1942:	70 93 29 01 	sts	0x0129, r23
    1946:	60 93 28 01 	sts	0x0128, r22
    194a:	20 e0       	ldi	r18, 0x00	; 0
    194c:	30 e0       	ldi	r19, 0x00	; 0
    194e:	02 c0       	rjmp	.+4      	; 0x1954 <set_pwm+0xde>
    1950:	21 e0       	ldi	r18, 0x01	; 1
    1952:	30 e0       	ldi	r19, 0x00	; 0
    1954:	c9 01       	movw	r24, r18
    1956:	08 95       	ret

00001958 <enable_pwm>:
    1958:	0c 94 3b 0c 	jmp	0x1876	; 0x1876 <set_pwm>

0000195c <servoInit>:
    195c:	21 9a       	sbi	0x04, 1	; 4
    195e:	22 9a       	sbi	0x04, 2	; 4
    1960:	80 ea       	ldi	r24, 0xA0	; 160
    1962:	80 93 80 00 	sts	0x0080, r24
    1966:	82 e1       	ldi	r24, 0x12	; 18
    1968:	80 93 81 00 	sts	0x0081, r24
    196c:	10 92 85 00 	sts	0x0085, r1
    1970:	10 92 84 00 	sts	0x0084, r1
    1974:	80 e2       	ldi	r24, 0x20	; 32
    1976:	9e e4       	ldi	r25, 0x4E	; 78
    1978:	90 93 87 00 	sts	0x0087, r25
    197c:	80 93 86 00 	sts	0x0086, r24
    1980:	8c ed       	ldi	r24, 0xDC	; 220
    1982:	95 e0       	ldi	r25, 0x05	; 5
    1984:	90 93 89 00 	sts	0x0089, r25
    1988:	80 93 88 00 	sts	0x0088, r24
    198c:	90 93 8b 00 	sts	0x008B, r25
    1990:	80 93 8a 00 	sts	0x008A, r24
    1994:	08 95       	ret

00001996 <setServo>:
    1996:	9b 01       	movw	r18, r22
    1998:	28 5e       	subi	r18, 0xE8	; 232
    199a:	33 40       	sbci	r19, 0x03	; 3
    199c:	29 3e       	cpi	r18, 0xE9	; 233
    199e:	33 40       	sbci	r19, 0x03	; 3
    19a0:	58 f4       	brcc	.+22     	; 0x19b8 <setServo+0x22>
    19a2:	81 11       	cpse	r24, r1
    19a4:	05 c0       	rjmp	.+10     	; 0x19b0 <setServo+0x1a>
    19a6:	70 93 89 00 	sts	0x0089, r23
    19aa:	60 93 88 00 	sts	0x0088, r22
    19ae:	08 95       	ret
    19b0:	70 93 8b 00 	sts	0x008B, r23
    19b4:	60 93 8a 00 	sts	0x008A, r22
    19b8:	08 95       	ret

000019ba <init_timer>:
    19ba:	10 92 80 00 	sts	0x0080, r1
    19be:	83 e0       	ldi	r24, 0x03	; 3
    19c0:	80 93 81 00 	sts	0x0081, r24
    19c4:	08 95       	ret

000019c6 <read_timer>:
    19c6:	20 91 84 00 	lds	r18, 0x0084
    19ca:	30 91 85 00 	lds	r19, 0x0085
    19ce:	c9 01       	movw	r24, r18
    19d0:	08 95       	ret

000019d2 <timerInit>:
    19d2:	10 92 b2 00 	sts	0x00B2, r1
    19d6:	82 e0       	ldi	r24, 0x02	; 2
    19d8:	80 93 b0 00 	sts	0x00B0, r24
    19dc:	85 e0       	ldi	r24, 0x05	; 5
    19de:	80 93 b1 00 	sts	0x00B1, r24
    19e2:	8d e7       	ldi	r24, 0x7D	; 125
    19e4:	80 93 b3 00 	sts	0x00B3, r24
    19e8:	e0 e7       	ldi	r30, 0x70	; 112
    19ea:	f0 e0       	ldi	r31, 0x00	; 0
    19ec:	80 81       	ld	r24, Z
    19ee:	82 60       	ori	r24, 0x02	; 2
    19f0:	80 83       	st	Z, r24
    19f2:	78 94       	sei
    19f4:	08 95       	ret

000019f6 <__vector_13>:
    19f6:	1f 92       	push	r1
    19f8:	0f 92       	push	r0
    19fa:	0f b6       	in	r0, 0x3f	; 63
    19fc:	0f 92       	push	r0
    19fe:	11 24       	eor	r1, r1
    1a00:	8f 93       	push	r24
    1a02:	9f 93       	push	r25
    1a04:	af 93       	push	r26
    1a06:	bf 93       	push	r27
    1a08:	80 91 85 03 	lds	r24, 0x0385
    1a0c:	90 91 86 03 	lds	r25, 0x0386
    1a10:	a0 91 87 03 	lds	r26, 0x0387
    1a14:	b0 91 88 03 	lds	r27, 0x0388
    1a18:	01 96       	adiw	r24, 0x01	; 1
    1a1a:	a1 1d       	adc	r26, r1
    1a1c:	b1 1d       	adc	r27, r1
    1a1e:	80 93 85 03 	sts	0x0385, r24
    1a22:	90 93 86 03 	sts	0x0386, r25
    1a26:	a0 93 87 03 	sts	0x0387, r26
    1a2a:	b0 93 88 03 	sts	0x0388, r27
    1a2e:	bf 91       	pop	r27
    1a30:	af 91       	pop	r26
    1a32:	9f 91       	pop	r25
    1a34:	8f 91       	pop	r24
    1a36:	0f 90       	pop	r0
    1a38:	0f be       	out	0x3f, r0	; 63
    1a3a:	0f 90       	pop	r0
    1a3c:	1f 90       	pop	r1
    1a3e:	18 95       	reti

00001a40 <getMsTimer>:
    1a40:	0f 93       	push	r16
    1a42:	1f 93       	push	r17
    1a44:	f8 94       	cli
    1a46:	00 91 85 03 	lds	r16, 0x0385
    1a4a:	10 91 86 03 	lds	r17, 0x0386
    1a4e:	20 91 87 03 	lds	r18, 0x0387
    1a52:	30 91 88 03 	lds	r19, 0x0388
    1a56:	78 94       	sei
    1a58:	b8 01       	movw	r22, r16
    1a5a:	c9 01       	movw	r24, r18
    1a5c:	1f 91       	pop	r17
    1a5e:	0f 91       	pop	r16
    1a60:	08 95       	ret

00001a62 <uartInit>:
    1a62:	28 e1       	ldi	r18, 0x18	; 24
    1a64:	20 93 c1 00 	sts	0x00C1, r18
    1a68:	26 e0       	ldi	r18, 0x06	; 6
    1a6a:	20 93 c2 00 	sts	0x00C2, r18
    1a6e:	90 93 c5 00 	sts	0x00C5, r25
    1a72:	80 93 c4 00 	sts	0x00C4, r24
    1a76:	08 95       	ret

00001a78 <uart_putc>:
    1a78:	90 91 c0 00 	lds	r25, 0x00C0
    1a7c:	95 ff       	sbrs	r25, 5
    1a7e:	fc cf       	rjmp	.-8      	; 0x1a78 <uart_putc>
    1a80:	80 93 c6 00 	sts	0x00C6, r24
    1a84:	80 e0       	ldi	r24, 0x00	; 0
    1a86:	90 e0       	ldi	r25, 0x00	; 0
    1a88:	08 95       	ret

00001a8a <uart_puts>:
    1a8a:	cf 93       	push	r28
    1a8c:	df 93       	push	r29
    1a8e:	ec 01       	movw	r28, r24
    1a90:	02 c0       	rjmp	.+4      	; 0x1a96 <uart_puts+0xc>
    1a92:	0e 94 3c 0d 	call	0x1a78	; 0x1a78 <uart_putc>
    1a96:	89 91       	ld	r24, Y+
    1a98:	81 11       	cpse	r24, r1
    1a9a:	fb cf       	rjmp	.-10     	; 0x1a92 <uart_puts+0x8>
    1a9c:	df 91       	pop	r29
    1a9e:	cf 91       	pop	r28
    1aa0:	08 95       	ret

00001aa2 <uart_puts_pgm>:
    1aa2:	1f 93       	push	r17
    1aa4:	cf 93       	push	r28
    1aa6:	df 93       	push	r29
    1aa8:	ec 01       	movw	r28, r24
    1aaa:	fe 01       	movw	r30, r28
    1aac:	14 91       	lpm	r17, Z+
    1aae:	81 2f       	mov	r24, r17
    1ab0:	0e 94 3c 0d 	call	0x1a78	; 0x1a78 <uart_putc>
    1ab4:	11 23       	and	r17, r17
    1ab6:	11 f0       	breq	.+4      	; 0x1abc <uart_puts_pgm+0x1a>
    1ab8:	21 96       	adiw	r28, 0x01	; 1
    1aba:	f7 cf       	rjmp	.-18     	; 0x1aaa <uart_puts_pgm+0x8>
    1abc:	df 91       	pop	r29
    1abe:	cf 91       	pop	r28
    1ac0:	1f 91       	pop	r17
    1ac2:	08 95       	ret

00001ac4 <uart_puti>:
    1ac4:	cf 93       	push	r28
    1ac6:	df 93       	push	r29
    1ac8:	cd b7       	in	r28, 0x3d	; 61
    1aca:	de b7       	in	r29, 0x3e	; 62
    1acc:	2a 97       	sbiw	r28, 0x0a	; 10
    1ace:	0f b6       	in	r0, 0x3f	; 63
    1ad0:	f8 94       	cli
    1ad2:	de bf       	out	0x3e, r29	; 62
    1ad4:	0f be       	out	0x3f, r0	; 63
    1ad6:	cd bf       	out	0x3d, r28	; 61
    1ad8:	4a e0       	ldi	r20, 0x0A	; 10
    1ada:	50 e0       	ldi	r21, 0x00	; 0
    1adc:	be 01       	movw	r22, r28
    1ade:	6f 5f       	subi	r22, 0xFF	; 255
    1ae0:	7f 4f       	sbci	r23, 0xFF	; 255
    1ae2:	0e 94 01 0f 	call	0x1e02	; 0x1e02 <itoa>
    1ae6:	ce 01       	movw	r24, r28
    1ae8:	01 96       	adiw	r24, 0x01	; 1
    1aea:	0e 94 45 0d 	call	0x1a8a	; 0x1a8a <uart_puts>
    1aee:	2a 96       	adiw	r28, 0x0a	; 10
    1af0:	0f b6       	in	r0, 0x3f	; 63
    1af2:	f8 94       	cli
    1af4:	de bf       	out	0x3e, r29	; 62
    1af6:	0f be       	out	0x3f, r0	; 63
    1af8:	cd bf       	out	0x3d, r28	; 61
    1afa:	df 91       	pop	r29
    1afc:	cf 91       	pop	r28
    1afe:	08 95       	ret

00001b00 <uart_getc>:
    1b00:	80 91 c0 00 	lds	r24, 0x00C0
    1b04:	87 ff       	sbrs	r24, 7
    1b06:	fc cf       	rjmp	.-8      	; 0x1b00 <uart_getc>
    1b08:	80 91 c6 00 	lds	r24, 0x00C6
    1b0c:	08 95       	ret

00001b0e <__vector_25>:
    1b0e:	1f 92       	push	r1
    1b10:	0f 92       	push	r0
    1b12:	0f b6       	in	r0, 0x3f	; 63
    1b14:	0f 92       	push	r0
    1b16:	11 24       	eor	r1, r1
    1b18:	8f 93       	push	r24
    1b1a:	80 91 c6 00 	lds	r24, 0x00C6
    1b1e:	80 93 ae 02 	sts	0x02AE, r24
    1b22:	8f 91       	pop	r24
    1b24:	0f 90       	pop	r0
    1b26:	0f be       	out	0x3f, r0	; 63
    1b28:	0f 90       	pop	r0
    1b2a:	1f 90       	pop	r1
    1b2c:	18 95       	reti

00001b2e <__vector_27>:
    1b2e:	1f 92       	push	r1
    1b30:	0f 92       	push	r0
    1b32:	0f b6       	in	r0, 0x3f	; 63
    1b34:	0f 92       	push	r0
    1b36:	11 24       	eor	r1, r1
    1b38:	0b b6       	in	r0, 0x3b	; 59
    1b3a:	0f 92       	push	r0
    1b3c:	1b be       	out	0x3b, r1	; 59
    1b3e:	2f 93       	push	r18
    1b40:	3f 93       	push	r19
    1b42:	4f 93       	push	r20
    1b44:	5f 93       	push	r21
    1b46:	6f 93       	push	r22
    1b48:	7f 93       	push	r23
    1b4a:	8f 93       	push	r24
    1b4c:	9f 93       	push	r25
    1b4e:	af 93       	push	r26
    1b50:	bf 93       	push	r27
    1b52:	ef 93       	push	r30
    1b54:	ff 93       	push	r31
    1b56:	82 e4       	ldi	r24, 0x42	; 66
    1b58:	92 e0       	ldi	r25, 0x02	; 2
    1b5a:	0e 94 45 0d 	call	0x1a8a	; 0x1a8a <uart_puts>
    1b5e:	ff 91       	pop	r31
    1b60:	ef 91       	pop	r30
    1b62:	bf 91       	pop	r27
    1b64:	af 91       	pop	r26
    1b66:	9f 91       	pop	r25
    1b68:	8f 91       	pop	r24
    1b6a:	7f 91       	pop	r23
    1b6c:	6f 91       	pop	r22
    1b6e:	5f 91       	pop	r21
    1b70:	4f 91       	pop	r20
    1b72:	3f 91       	pop	r19
    1b74:	2f 91       	pop	r18
    1b76:	0f 90       	pop	r0
    1b78:	0b be       	out	0x3b, r0	; 59
    1b7a:	0f 90       	pop	r0
    1b7c:	0f be       	out	0x3f, r0	; 63
    1b7e:	0f 90       	pop	r0
    1b80:	1f 90       	pop	r1
    1b82:	18 95       	reti

00001b84 <__vector_23>:
    1b84:	1f 92       	push	r1
    1b86:	0f 92       	push	r0
    1b88:	0f b6       	in	r0, 0x3f	; 63
    1b8a:	0f 92       	push	r0
    1b8c:	11 24       	eor	r1, r1
    1b8e:	2f 93       	push	r18
    1b90:	3f 93       	push	r19
    1b92:	8f 93       	push	r24
    1b94:	9f 93       	push	r25
    1b96:	af 93       	push	r26
    1b98:	bf 93       	push	r27
    1b9a:	80 91 af 02 	lds	r24, 0x02AF
    1b9e:	90 91 b0 02 	lds	r25, 0x02B0
    1ba2:	a0 91 b1 02 	lds	r26, 0x02B1
    1ba6:	b0 91 b2 02 	lds	r27, 0x02B2
    1baa:	30 91 b7 02 	lds	r19, 0x02B7
    1bae:	23 2f       	mov	r18, r19
    1bb0:	2d 5f       	subi	r18, 0xFD	; 253
    1bb2:	2d 37       	cpi	r18, 0x7D	; 125
    1bb4:	20 f4       	brcc	.+8      	; 0x1bbe <__vector_23+0x3a>
    1bb6:	01 96       	adiw	r24, 0x01	; 1
    1bb8:	a1 1d       	adc	r26, r1
    1bba:	b1 1d       	adc	r27, r1
    1bbc:	05 c0       	rjmp	.+10     	; 0x1bc8 <__vector_23+0x44>
    1bbe:	23 2f       	mov	r18, r19
    1bc0:	2a 57       	subi	r18, 0x7A	; 122
    1bc2:	02 96       	adiw	r24, 0x02	; 2
    1bc4:	a1 1d       	adc	r26, r1
    1bc6:	b1 1d       	adc	r27, r1
    1bc8:	20 93 b7 02 	sts	0x02B7, r18
    1bcc:	80 93 af 02 	sts	0x02AF, r24
    1bd0:	90 93 b0 02 	sts	0x02B0, r25
    1bd4:	a0 93 b1 02 	sts	0x02B1, r26
    1bd8:	b0 93 b2 02 	sts	0x02B2, r27
    1bdc:	80 91 b3 02 	lds	r24, 0x02B3
    1be0:	90 91 b4 02 	lds	r25, 0x02B4
    1be4:	a0 91 b5 02 	lds	r26, 0x02B5
    1be8:	b0 91 b6 02 	lds	r27, 0x02B6
    1bec:	01 96       	adiw	r24, 0x01	; 1
    1bee:	a1 1d       	adc	r26, r1
    1bf0:	b1 1d       	adc	r27, r1
    1bf2:	80 93 b3 02 	sts	0x02B3, r24
    1bf6:	90 93 b4 02 	sts	0x02B4, r25
    1bfa:	a0 93 b5 02 	sts	0x02B5, r26
    1bfe:	b0 93 b6 02 	sts	0x02B6, r27
    1c02:	bf 91       	pop	r27
    1c04:	af 91       	pop	r26
    1c06:	9f 91       	pop	r25
    1c08:	8f 91       	pop	r24
    1c0a:	3f 91       	pop	r19
    1c0c:	2f 91       	pop	r18
    1c0e:	0f 90       	pop	r0
    1c10:	0f be       	out	0x3f, r0	; 63
    1c12:	0f 90       	pop	r0
    1c14:	1f 90       	pop	r1
    1c16:	18 95       	reti

00001c18 <millis>:
    1c18:	0f 93       	push	r16
    1c1a:	1f 93       	push	r17
    1c1c:	8f b7       	in	r24, 0x3f	; 63
    1c1e:	f8 94       	cli
    1c20:	00 91 af 02 	lds	r16, 0x02AF
    1c24:	10 91 b0 02 	lds	r17, 0x02B0
    1c28:	20 91 b1 02 	lds	r18, 0x02B1
    1c2c:	30 91 b2 02 	lds	r19, 0x02B2
    1c30:	8f bf       	out	0x3f, r24	; 63
    1c32:	b8 01       	movw	r22, r16
    1c34:	c9 01       	movw	r24, r18
    1c36:	1f 91       	pop	r17
    1c38:	0f 91       	pop	r16
    1c3a:	08 95       	ret

00001c3c <micros>:
    1c3c:	0f 93       	push	r16
    1c3e:	1f 93       	push	r17
    1c40:	4f b7       	in	r20, 0x3f	; 63
    1c42:	f8 94       	cli
    1c44:	86 b5       	in	r24, 0x26	; 38
    1c46:	90 e0       	ldi	r25, 0x00	; 0
    1c48:	a0 e0       	ldi	r26, 0x00	; 0
    1c4a:	b0 e0       	ldi	r27, 0x00	; 0
    1c4c:	a8 9b       	sbis	0x15, 0	; 21
    1c4e:	08 c0       	rjmp	.+16     	; 0x1c60 <micros+0x24>
    1c50:	00 97       	sbiw	r24, 0x00	; 0
    1c52:	a1 05       	cpc	r26, r1
    1c54:	b1 05       	cpc	r27, r1
    1c56:	21 f4       	brne	.+8      	; 0x1c60 <micros+0x24>
    1c58:	80 e0       	ldi	r24, 0x00	; 0
    1c5a:	91 e0       	ldi	r25, 0x01	; 1
    1c5c:	a0 e0       	ldi	r26, 0x00	; 0
    1c5e:	b0 e0       	ldi	r27, 0x00	; 0
    1c60:	00 91 b3 02 	lds	r16, 0x02B3
    1c64:	10 91 b4 02 	lds	r17, 0x02B4
    1c68:	20 91 b5 02 	lds	r18, 0x02B5
    1c6c:	30 91 b6 02 	lds	r19, 0x02B6
    1c70:	4f bf       	out	0x3f, r20	; 63
    1c72:	32 2f       	mov	r19, r18
    1c74:	21 2f       	mov	r18, r17
    1c76:	10 2f       	mov	r17, r16
    1c78:	00 27       	eor	r16, r16
    1c7a:	08 0f       	add	r16, r24
    1c7c:	19 1f       	adc	r17, r25
    1c7e:	2a 1f       	adc	r18, r26
    1c80:	3b 1f       	adc	r19, r27
    1c82:	52 e0       	ldi	r21, 0x02	; 2
    1c84:	00 0f       	add	r16, r16
    1c86:	11 1f       	adc	r17, r17
    1c88:	22 1f       	adc	r18, r18
    1c8a:	33 1f       	adc	r19, r19
    1c8c:	5a 95       	dec	r21
    1c8e:	d1 f7       	brne	.-12     	; 0x1c84 <micros+0x48>
    1c90:	b8 01       	movw	r22, r16
    1c92:	c9 01       	movw	r24, r18
    1c94:	1f 91       	pop	r17
    1c96:	0f 91       	pop	r16
    1c98:	08 95       	ret

00001c9a <delay>:
    1c9a:	8f 92       	push	r8
    1c9c:	9f 92       	push	r9
    1c9e:	af 92       	push	r10
    1ca0:	bf 92       	push	r11
    1ca2:	cf 92       	push	r12
    1ca4:	df 92       	push	r13
    1ca6:	ef 92       	push	r14
    1ca8:	ff 92       	push	r15
    1caa:	6b 01       	movw	r12, r22
    1cac:	7c 01       	movw	r14, r24
    1cae:	0e 94 0c 0e 	call	0x1c18	; 0x1c18 <millis>
    1cb2:	4b 01       	movw	r8, r22
    1cb4:	5c 01       	movw	r10, r24
    1cb6:	0e 94 0c 0e 	call	0x1c18	; 0x1c18 <millis>
    1cba:	68 19       	sub	r22, r8
    1cbc:	79 09       	sbc	r23, r9
    1cbe:	8a 09       	sbc	r24, r10
    1cc0:	9b 09       	sbc	r25, r11
    1cc2:	c6 16       	cp	r12, r22
    1cc4:	d7 06       	cpc	r13, r23
    1cc6:	e8 06       	cpc	r14, r24
    1cc8:	f9 06       	cpc	r15, r25
    1cca:	a8 f7       	brcc	.-22     	; 0x1cb6 <delay+0x1c>
    1ccc:	ff 90       	pop	r15
    1cce:	ef 90       	pop	r14
    1cd0:	df 90       	pop	r13
    1cd2:	cf 90       	pop	r12
    1cd4:	bf 90       	pop	r11
    1cd6:	af 90       	pop	r10
    1cd8:	9f 90       	pop	r9
    1cda:	8f 90       	pop	r8
    1cdc:	08 95       	ret

00001cde <delayMicroseconds>:
    1cde:	01 97       	sbiw	r24, 0x01	; 1
    1ce0:	51 f0       	breq	.+20     	; 0x1cf6 <delayMicroseconds+0x18>
    1ce2:	88 0f       	add	r24, r24
    1ce4:	99 1f       	adc	r25, r25
    1ce6:	88 0f       	add	r24, r24
    1ce8:	99 1f       	adc	r25, r25
    1cea:	02 97       	sbiw	r24, 0x02	; 2
    1cec:	2f b7       	in	r18, 0x3f	; 63
    1cee:	f8 94       	cli
    1cf0:	01 97       	sbiw	r24, 0x01	; 1
    1cf2:	f1 f7       	brne	.-4      	; 0x1cf0 <delayMicroseconds+0x12>
    1cf4:	2f bf       	out	0x3f, r18	; 63
    1cf6:	08 95       	ret

00001cf8 <init>:
    1cf8:	78 94       	sei
    1cfa:	84 b5       	in	r24, 0x24	; 36
    1cfc:	82 60       	ori	r24, 0x02	; 2
    1cfe:	84 bd       	out	0x24, r24	; 36
    1d00:	84 b5       	in	r24, 0x24	; 36
    1d02:	81 60       	ori	r24, 0x01	; 1
    1d04:	84 bd       	out	0x24, r24	; 36
    1d06:	85 b5       	in	r24, 0x25	; 37
    1d08:	82 60       	ori	r24, 0x02	; 2
    1d0a:	85 bd       	out	0x25, r24	; 37
    1d0c:	85 b5       	in	r24, 0x25	; 37
    1d0e:	81 60       	ori	r24, 0x01	; 1
    1d10:	85 bd       	out	0x25, r24	; 37
    1d12:	ee e6       	ldi	r30, 0x6E	; 110
    1d14:	f0 e0       	ldi	r31, 0x00	; 0
    1d16:	80 81       	ld	r24, Z
    1d18:	81 60       	ori	r24, 0x01	; 1
    1d1a:	80 83       	st	Z, r24
    1d1c:	e1 e8       	ldi	r30, 0x81	; 129
    1d1e:	f0 e0       	ldi	r31, 0x00	; 0
    1d20:	80 81       	ld	r24, Z
    1d22:	82 60       	ori	r24, 0x02	; 2
    1d24:	80 83       	st	Z, r24
    1d26:	80 81       	ld	r24, Z
    1d28:	81 60       	ori	r24, 0x01	; 1
    1d2a:	80 83       	st	Z, r24
    1d2c:	e0 e8       	ldi	r30, 0x80	; 128
    1d2e:	f0 e0       	ldi	r31, 0x00	; 0
    1d30:	80 81       	ld	r24, Z
    1d32:	81 60       	ori	r24, 0x01	; 1
    1d34:	80 83       	st	Z, r24
    1d36:	e1 eb       	ldi	r30, 0xB1	; 177
    1d38:	f0 e0       	ldi	r31, 0x00	; 0
    1d3a:	80 81       	ld	r24, Z
    1d3c:	84 60       	ori	r24, 0x04	; 4
    1d3e:	80 83       	st	Z, r24
    1d40:	e0 eb       	ldi	r30, 0xB0	; 176
    1d42:	f0 e0       	ldi	r31, 0x00	; 0
    1d44:	80 81       	ld	r24, Z
    1d46:	81 60       	ori	r24, 0x01	; 1
    1d48:	80 83       	st	Z, r24
    1d4a:	ea e7       	ldi	r30, 0x7A	; 122
    1d4c:	f0 e0       	ldi	r31, 0x00	; 0
    1d4e:	80 81       	ld	r24, Z
    1d50:	84 60       	ori	r24, 0x04	; 4
    1d52:	80 83       	st	Z, r24
    1d54:	80 81       	ld	r24, Z
    1d56:	82 60       	ori	r24, 0x02	; 2
    1d58:	80 83       	st	Z, r24
    1d5a:	80 81       	ld	r24, Z
    1d5c:	81 60       	ori	r24, 0x01	; 1
    1d5e:	80 83       	st	Z, r24
    1d60:	80 81       	ld	r24, Z
    1d62:	80 68       	ori	r24, 0x80	; 128
    1d64:	80 83       	st	Z, r24
    1d66:	10 92 c1 00 	sts	0x00C1, r1
    1d6a:	08 95       	ret

00001d6c <__udivmodhi4>:
    1d6c:	aa 1b       	sub	r26, r26
    1d6e:	bb 1b       	sub	r27, r27
    1d70:	51 e1       	ldi	r21, 0x11	; 17
    1d72:	07 c0       	rjmp	.+14     	; 0x1d82 <__udivmodhi4_ep>

00001d74 <__udivmodhi4_loop>:
    1d74:	aa 1f       	adc	r26, r26
    1d76:	bb 1f       	adc	r27, r27
    1d78:	a6 17       	cp	r26, r22
    1d7a:	b7 07       	cpc	r27, r23
    1d7c:	10 f0       	brcs	.+4      	; 0x1d82 <__udivmodhi4_ep>
    1d7e:	a6 1b       	sub	r26, r22
    1d80:	b7 0b       	sbc	r27, r23

00001d82 <__udivmodhi4_ep>:
    1d82:	88 1f       	adc	r24, r24
    1d84:	99 1f       	adc	r25, r25
    1d86:	5a 95       	dec	r21
    1d88:	a9 f7       	brne	.-22     	; 0x1d74 <__udivmodhi4_loop>
    1d8a:	80 95       	com	r24
    1d8c:	90 95       	com	r25
    1d8e:	bc 01       	movw	r22, r24
    1d90:	cd 01       	movw	r24, r26
    1d92:	08 95       	ret

00001d94 <__prologue_saves__>:
    1d94:	2f 92       	push	r2
    1d96:	3f 92       	push	r3
    1d98:	4f 92       	push	r4
    1d9a:	5f 92       	push	r5
    1d9c:	6f 92       	push	r6
    1d9e:	7f 92       	push	r7
    1da0:	8f 92       	push	r8
    1da2:	9f 92       	push	r9
    1da4:	af 92       	push	r10
    1da6:	bf 92       	push	r11
    1da8:	cf 92       	push	r12
    1daa:	df 92       	push	r13
    1dac:	ef 92       	push	r14
    1dae:	ff 92       	push	r15
    1db0:	0f 93       	push	r16
    1db2:	1f 93       	push	r17
    1db4:	cf 93       	push	r28
    1db6:	df 93       	push	r29
    1db8:	cd b7       	in	r28, 0x3d	; 61
    1dba:	de b7       	in	r29, 0x3e	; 62
    1dbc:	ca 1b       	sub	r28, r26
    1dbe:	db 0b       	sbc	r29, r27
    1dc0:	0f b6       	in	r0, 0x3f	; 63
    1dc2:	f8 94       	cli
    1dc4:	de bf       	out	0x3e, r29	; 62
    1dc6:	0f be       	out	0x3f, r0	; 63
    1dc8:	cd bf       	out	0x3d, r28	; 61
    1dca:	19 94       	eijmp

00001dcc <__epilogue_restores__>:
    1dcc:	2a 88       	ldd	r2, Y+18	; 0x12
    1dce:	39 88       	ldd	r3, Y+17	; 0x11
    1dd0:	48 88       	ldd	r4, Y+16	; 0x10
    1dd2:	5f 84       	ldd	r5, Y+15	; 0x0f
    1dd4:	6e 84       	ldd	r6, Y+14	; 0x0e
    1dd6:	7d 84       	ldd	r7, Y+13	; 0x0d
    1dd8:	8c 84       	ldd	r8, Y+12	; 0x0c
    1dda:	9b 84       	ldd	r9, Y+11	; 0x0b
    1ddc:	aa 84       	ldd	r10, Y+10	; 0x0a
    1dde:	b9 84       	ldd	r11, Y+9	; 0x09
    1de0:	c8 84       	ldd	r12, Y+8	; 0x08
    1de2:	df 80       	ldd	r13, Y+7	; 0x07
    1de4:	ee 80       	ldd	r14, Y+6	; 0x06
    1de6:	fd 80       	ldd	r15, Y+5	; 0x05
    1de8:	0c 81       	ldd	r16, Y+4	; 0x04
    1dea:	1b 81       	ldd	r17, Y+3	; 0x03
    1dec:	aa 81       	ldd	r26, Y+2	; 0x02
    1dee:	b9 81       	ldd	r27, Y+1	; 0x01
    1df0:	ce 0f       	add	r28, r30
    1df2:	d1 1d       	adc	r29, r1
    1df4:	0f b6       	in	r0, 0x3f	; 63
    1df6:	f8 94       	cli
    1df8:	de bf       	out	0x3e, r29	; 62
    1dfa:	0f be       	out	0x3f, r0	; 63
    1dfc:	cd bf       	out	0x3d, r28	; 61
    1dfe:	ed 01       	movw	r28, r26
    1e00:	08 95       	ret

00001e02 <itoa>:
    1e02:	fb 01       	movw	r30, r22
    1e04:	9f 01       	movw	r18, r30
    1e06:	e8 94       	clt
    1e08:	42 30       	cpi	r20, 0x02	; 2
    1e0a:	c4 f0       	brlt	.+48     	; 0x1e3c <itoa+0x3a>
    1e0c:	45 32       	cpi	r20, 0x25	; 37
    1e0e:	b4 f4       	brge	.+44     	; 0x1e3c <itoa+0x3a>
    1e10:	4a 30       	cpi	r20, 0x0A	; 10
    1e12:	29 f4       	brne	.+10     	; 0x1e1e <itoa+0x1c>
    1e14:	97 fb       	bst	r25, 7
    1e16:	1e f4       	brtc	.+6      	; 0x1e1e <itoa+0x1c>
    1e18:	90 95       	com	r25
    1e1a:	81 95       	neg	r24
    1e1c:	9f 4f       	sbci	r25, 0xFF	; 255
    1e1e:	64 2f       	mov	r22, r20
    1e20:	77 27       	eor	r23, r23
    1e22:	0e 94 b6 0e 	call	0x1d6c	; 0x1d6c <__udivmodhi4>
    1e26:	80 5d       	subi	r24, 0xD0	; 208
    1e28:	8a 33       	cpi	r24, 0x3A	; 58
    1e2a:	0c f0       	brlt	.+2      	; 0x1e2e <itoa+0x2c>
    1e2c:	89 5d       	subi	r24, 0xD9	; 217
    1e2e:	81 93       	st	Z+, r24
    1e30:	cb 01       	movw	r24, r22
    1e32:	00 97       	sbiw	r24, 0x00	; 0
    1e34:	a1 f7       	brne	.-24     	; 0x1e1e <itoa+0x1c>
    1e36:	16 f4       	brtc	.+4      	; 0x1e3c <itoa+0x3a>
    1e38:	5d e2       	ldi	r21, 0x2D	; 45
    1e3a:	51 93       	st	Z+, r21
    1e3c:	10 82       	st	Z, r1
    1e3e:	c9 01       	movw	r24, r18
    1e40:	0c 94 22 0f 	jmp	0x1e44	; 0x1e44 <strrev>

00001e44 <strrev>:
    1e44:	dc 01       	movw	r26, r24
    1e46:	fc 01       	movw	r30, r24
    1e48:	67 2f       	mov	r22, r23
    1e4a:	71 91       	ld	r23, Z+
    1e4c:	77 23       	and	r23, r23
    1e4e:	e1 f7       	brne	.-8      	; 0x1e48 <strrev+0x4>
    1e50:	32 97       	sbiw	r30, 0x02	; 2
    1e52:	04 c0       	rjmp	.+8      	; 0x1e5c <strrev+0x18>
    1e54:	7c 91       	ld	r23, X
    1e56:	6d 93       	st	X+, r22
    1e58:	70 83       	st	Z, r23
    1e5a:	62 91       	ld	r22, -Z
    1e5c:	ae 17       	cp	r26, r30
    1e5e:	bf 07       	cpc	r27, r31
    1e60:	c8 f3       	brcs	.-14     	; 0x1e54 <strrev+0x10>
    1e62:	08 95       	ret

00001e64 <_exit>:
    1e64:	f8 94       	cli

00001e66 <__stop_program>:
    1e66:	ff cf       	rjmp	.-2      	; 0x1e66 <__stop_program>
