Archive member included because of file (symbol)

/usr/lib/gcc/avr/4.7.0/../../../avr/lib/avr6/libprintf_flt.a(vfprintf_flt.o)
                              (vfprintf)
/usr/lib/gcc/avr/4.7.0/../../../avr/lib/avr6/libm.a(addsf3.o)
                              ./dev/src/hal/kalman.o (__subsf3)
/usr/lib/gcc/avr/4.7.0/../../../avr/lib/avr6/libm.a(addsf3x.o)
                              /usr/lib/gcc/avr/4.7.0/../../../avr/lib/avr6/libm.a(addsf3.o) (__addsf3x)
/usr/lib/gcc/avr/4.7.0/../../../avr/lib/avr6/libm.a(divsf3.o)
                              ./dev/src/hal/kalman.o (__divsf3)
/usr/lib/gcc/avr/4.7.0/../../../avr/lib/avr6/libm.a(divsf3x.o)
                              /usr/lib/gcc/avr/4.7.0/../../../avr/lib/avr6/libm.a(divsf3.o) (__divsf3x)
/usr/lib/gcc/avr/4.7.0/../../../avr/lib/avr6/libm.a(floatsisf.o)
                              ./dev/src/hal/accelerometer.o (__floatsisf)
/usr/lib/gcc/avr/4.7.0/../../../avr/lib/avr6/libm.a(fp_inf.o)
                              /usr/lib/gcc/avr/4.7.0/../../../avr/lib/avr6/libm.a(addsf3x.o) (__fp_inf)
/usr/lib/gcc/avr/4.7.0/../../../avr/lib/avr6/libm.a(fp_nan.o)
                              /usr/lib/gcc/avr/4.7.0/../../../avr/lib/avr6/libm.a(addsf3x.o) (__fp_nan)
/usr/lib/gcc/avr/4.7.0/../../../avr/lib/avr6/libm.a(fp_pscA.o)
                              /usr/lib/gcc/avr/4.7.0/../../../avr/lib/avr6/libm.a(addsf3x.o) (__fp_pscA)
/usr/lib/gcc/avr/4.7.0/../../../avr/lib/avr6/libm.a(fp_pscB.o)
                              /usr/lib/gcc/avr/4.7.0/../../../avr/lib/avr6/libm.a(addsf3x.o) (__fp_pscB)
/usr/lib/gcc/avr/4.7.0/../../../avr/lib/avr6/libm.a(fp_round.o)
                              /usr/lib/gcc/avr/4.7.0/../../../avr/lib/avr6/libm.a(addsf3.o) (__fp_round)
/usr/lib/gcc/avr/4.7.0/../../../avr/lib/avr6/libm.a(fp_split3.o)
                              /usr/lib/gcc/avr/4.7.0/../../../avr/lib/avr6/libm.a(addsf3x.o) (__fp_split3)
/usr/lib/gcc/avr/4.7.0/../../../avr/lib/avr6/libm.a(fp_zero.o)
                              /usr/lib/gcc/avr/4.7.0/../../../avr/lib/avr6/libm.a(addsf3x.o) (__fp_zero)
/usr/lib/gcc/avr/4.7.0/../../../avr/lib/avr6/libm.a(mulsf3.o)
                              ./dev/src/hal/accelerometer.o (__mulsf3)
/usr/lib/gcc/avr/4.7.0/../../../avr/lib/avr6/libm.a(mulsf3x.o)
                              /usr/lib/gcc/avr/4.7.0/../../../avr/lib/avr6/libm.a(mulsf3.o) (__mulsf3x)
/usr/lib/gcc/avr/4.7.0/avr6/libgcc.a(_udivmodhi4.o)
                              ./dev/src/hal/gyro.o (__udivmodhi4)
/usr/lib/gcc/avr/4.7.0/avr6/libgcc.a(_exit.o)
                              /usr/lib/gcc/avr/4.7.0/../../../avr/lib/avr6/crtm2560.o (exit)
/usr/lib/gcc/avr/4.7.0/avr6/libgcc.a(_copy_data.o)
                              ./dev/src/quad/main.o (__do_copy_data)
/usr/lib/gcc/avr/4.7.0/avr6/libgcc.a(_clear_bss.o)
                              ./dev/src/quad/main.o (__do_clear_bss)
/usr/lib/gcc/avr/4.7.0/../../../avr/lib/avr6/libc.a(ftoa_engine.o)
                              /usr/lib/gcc/avr/4.7.0/../../../avr/lib/avr6/libprintf_flt.a(vfprintf_flt.o) (__ftoa_engine)
/usr/lib/gcc/avr/4.7.0/../../../avr/lib/avr6/libc.a(strnlen_P.o)
                              /usr/lib/gcc/avr/4.7.0/../../../avr/lib/avr6/libprintf_flt.a(vfprintf_flt.o) (strnlen_P)
/usr/lib/gcc/avr/4.7.0/../../../avr/lib/avr6/libc.a(strnlen.o)
                              /usr/lib/gcc/avr/4.7.0/../../../avr/lib/avr6/libprintf_flt.a(vfprintf_flt.o) (strnlen)
/usr/lib/gcc/avr/4.7.0/../../../avr/lib/avr6/libc.a(itoa.o)
                              ./dev/src/hal/uart.o (itoa)
/usr/lib/gcc/avr/4.7.0/../../../avr/lib/avr6/libc.a(fputc.o)
                              /usr/lib/gcc/avr/4.7.0/../../../avr/lib/avr6/libprintf_flt.a(vfprintf_flt.o) (fputc)
/usr/lib/gcc/avr/4.7.0/../../../avr/lib/avr6/libc.a(sprintf.o)
                              ./dev/src/quad/main.o (sprintf)
/usr/lib/gcc/avr/4.7.0/../../../avr/lib/avr6/libc.a(ultoa_invert.o)
                              /usr/lib/gcc/avr/4.7.0/../../../avr/lib/avr6/libprintf_flt.a(vfprintf_flt.o) (__ultoa_invert)
/usr/lib/gcc/avr/4.7.0/../../../avr/lib/avr6/libc.a(strrev.o)
                              /usr/lib/gcc/avr/4.7.0/../../../avr/lib/avr6/libc.a(itoa.o) (strrev)

Allocating common symbols
Common symbol       size              file

gyroZero            0x8               ./dev/src/hal/gyro.o
rate                0x4               ./dev/src/hal/kalman.o
conf                0x67              ./dev/src/hal/accelerometer.o
sonarAlt            0x2               ./dev/src/hal/accelerometer.o
imu                 0x20              ./dev/src/hal/accelerometer.o
calibratingG        0x2               ./dev/src/hal/gyro.o
magHold             0x2               ./dev/src/hal/accelerometer.o
rawADC              0x6               ./dev/src/hal/accelerometer.o
q_bias              0x4               ./dev/src/hal/kalman.o
angle               0x4               ./dev/src/hal/kalman.o
data                0xc               ./dev/src/quad/main.o
Gyro_Accum          0x6               ./dev/src/hal/gyro.o
AltHold             0x4               ./dev/src/hal/accelerometer.o
previousTime        0x2               ./dev/src/hal/accelerometer.o
calibratingB        0x2               ./dev/src/hal/gyro.o
headFreeModeHold    0x2               ./dev/src/hal/accelerometer.o
ms_timer            0x4               ./dev/src/hal/timer.o
global_conf         0x10              ./dev/src/hal/accelerometer.o
currentTime         0x4               ./dev/src/hal/accelerometer.o

Memory Configuration

Name             Origin             Length             Attributes
text             0x0000000000000000 0x0000000000100000 xr
data             0x0000000000800200 0x000000000000fe00 rw !x
eeprom           0x0000000000810000 0x0000000000010000 rw !x
fuse             0x0000000000820000 0x0000000000000400 rw !x
lock             0x0000000000830000 0x0000000000000400 rw !x
signature        0x0000000000840000 0x0000000000000400 rw !x
*default*        0x0000000000000000 0xffffffffffffffff

Linker script and memory map

Address of section .data set to 0x800200
LOAD /usr/lib/gcc/avr/4.7.0/../../../avr/lib/avr6/crtm2560.o
LOAD ./dev/src/servo/servo.o
LOAD ./dev/src/quad/main.o
LOAD ./dev/src/motor/motor.o
LOAD ./dev/src/hal/accelerometer.o
LOAD ./dev/src/hal/gyro.o
LOAD ./dev/src/hal/i2c.o
LOAD ./dev/src/hal/input.o
LOAD ./dev/src/hal/kalman.o
LOAD ./dev/src/hal/pwm.o
LOAD ./dev/src/hal/time.o
LOAD ./dev/src/hal/timer.o
LOAD ./dev/src/hal/uart.o
LOAD ./dev/src/hal/wiring.o
LOAD /usr/lib/gcc/avr/4.7.0/../../../avr/lib/avr6/libprintf_flt.a
LOAD /usr/lib/gcc/avr/4.7.0/../../../avr/lib/avr6/libm.a
LOAD /usr/lib/gcc/avr/4.7.0/avr6/libgcc.a
LOAD /usr/lib/gcc/avr/4.7.0/../../../avr/lib/avr6/libc.a
LOAD /usr/lib/gcc/avr/4.7.0/avr6/libgcc.a

.hash
 *(.hash)

.dynsym
 *(.dynsym)

.dynstr
 *(.dynstr)

.gnu.version
 *(.gnu.version)

.gnu.version_d
 *(.gnu.version_d)

.gnu.version_r
 *(.gnu.version_r)

.rel.init
 *(.rel.init)

.rela.init
 *(.rela.init)

.rel.text
 *(.rel.text)
 *(.rel.text.*)
 *(.rel.gnu.linkonce.t*)

.rela.text
 *(.rela.text)
 *(.rela.text.*)
 *(.rela.gnu.linkonce.t*)

.rel.fini
 *(.rel.fini)

.rela.fini
 *(.rela.fini)

.rel.rodata
 *(.rel.rodata)
 *(.rel.rodata.*)
 *(.rel.gnu.linkonce.r*)

.rela.rodata
 *(.rela.rodata)
 *(.rela.rodata.*)
 *(.rela.gnu.linkonce.r*)

.rel.data
 *(.rel.data)
 *(.rel.data.*)
 *(.rel.gnu.linkonce.d*)

.rela.data
 *(.rela.data)
 *(.rela.data.*)
 *(.rela.gnu.linkonce.d*)

.rel.ctors
 *(.rel.ctors)

.rela.ctors
 *(.rela.ctors)

.rel.dtors
 *(.rel.dtors)

.rela.dtors
 *(.rela.dtors)

.rel.got
 *(.rel.got)

.rela.got
 *(.rela.got)

.rel.bss
 *(.rel.bss)

.rela.bss
 *(.rela.bss)

.rel.plt
 *(.rel.plt)

.rela.plt
 *(.rela.plt)

.text           0x0000000000000000     0x2736
 *(.vectors)
 .vectors       0x0000000000000000       0xe4 /usr/lib/gcc/avr/4.7.0/../../../avr/lib/avr6/crtm2560.o
                0x0000000000000000                __vectors
                0x0000000000000000                __vector_default
 *(.vectors)
 *(.progmem.gcc*)
 *(.progmem*)
 .progmem.data  0x00000000000000e4        0x8 /usr/lib/gcc/avr/4.7.0/../../../avr/lib/avr6/libprintf_flt.a(vfprintf_flt.o)
 .progmem.data  0x00000000000000ec       0xfa /usr/lib/gcc/avr/4.7.0/../../../avr/lib/avr6/libc.a(ftoa_engine.o)
                0x00000000000001e6                . = ALIGN (0x2)
                0x00000000000001e6                __trampolines_start = .
 *(.trampolines)
 .trampolines   0x00000000000001e6        0x0 linker stubs
 *(.trampolines*)
                0x00000000000001e6                __trampolines_end = .
 *(.jumptables)
 *(.jumptables*)
 *(.lowtext)
 *(.lowtext*)
                0x00000000000001e6                __ctors_start = .
 *(.ctors)
                0x00000000000001e6                __ctors_end = .
                0x00000000000001e6                __dtors_start = .
 *(.dtors)
                0x00000000000001e6                __dtors_end = .
 SORT(*)(.ctors)
 SORT(*)(.dtors)
 *(.init0)
 .init0         0x00000000000001e6        0x0 /usr/lib/gcc/avr/4.7.0/../../../avr/lib/avr6/crtm2560.o
                0x00000000000001e6                __init
 *(.init0)
 *(.init1)
 *(.init1)
 *(.init2)
 .init2         0x00000000000001e6       0x10 /usr/lib/gcc/avr/4.7.0/../../../avr/lib/avr6/crtm2560.o
 *(.init2)
 *(.init3)
 *(.init3)
 *(.init4)
 .init4         0x00000000000001f6       0x1a /usr/lib/gcc/avr/4.7.0/avr6/libgcc.a(_copy_data.o)
                0x00000000000001f6                __do_copy_data
 .init4         0x0000000000000210       0x10 /usr/lib/gcc/avr/4.7.0/avr6/libgcc.a(_clear_bss.o)
                0x0000000000000210                __do_clear_bss
 *(.init4)
 *(.init5)
 *(.init5)
 *(.init6)
 *(.init6)
 *(.init7)
 *(.init7)
 *(.init8)
 *(.init8)
 *(.init9)
 .init9         0x0000000000000220        0x8 /usr/lib/gcc/avr/4.7.0/../../../avr/lib/avr6/crtm2560.o
 *(.init9)
 *(.text)
 .text          0x0000000000000228        0x4 /usr/lib/gcc/avr/4.7.0/../../../avr/lib/avr6/crtm2560.o
                0x0000000000000228                __vector_22
                0x0000000000000228                __vector_28
                0x0000000000000228                __vector_1
                0x0000000000000228                __vector_32
                0x0000000000000228                __vector_34
                0x0000000000000228                __vector_24
                0x0000000000000228                __vector_12
                0x0000000000000228                __vector_55
                0x0000000000000228                __vector_46
                0x0000000000000228                __bad_interrupt
                0x0000000000000228                __vector_6
                0x0000000000000228                __vector_31
                0x0000000000000228                __vector_35
                0x0000000000000228                __vector_39
                0x0000000000000228                __vector_3
                0x0000000000000228                __vector_30
                0x0000000000000228                __vector_45
                0x0000000000000228                __vector_17
                0x0000000000000228                __vector_19
                0x0000000000000228                __vector_7
                0x0000000000000228                __vector_49
                0x0000000000000228                __vector_41
                0x0000000000000228                __vector_43
                0x0000000000000228                __vector_5
                0x0000000000000228                __vector_33
                0x0000000000000228                __vector_47
                0x0000000000000228                __vector_52
                0x0000000000000228                __vector_37
                0x0000000000000228                __vector_4
                0x0000000000000228                __vector_44
                0x0000000000000228                __vector_9
                0x0000000000000228                __vector_2
                0x0000000000000228                __vector_21
                0x0000000000000228                __vector_15
                0x0000000000000228                __vector_29
                0x0000000000000228                __vector_40
                0x0000000000000228                __vector_8
                0x0000000000000228                __vector_26
                0x0000000000000228                __vector_48
                0x0000000000000228                __vector_14
                0x0000000000000228                __vector_10
                0x0000000000000228                __vector_50
                0x0000000000000228                __vector_16
                0x0000000000000228                __vector_18
                0x0000000000000228                __vector_20
                0x0000000000000228                __vector_42
 .text          0x000000000000022c        0x0 ./dev/src/servo/servo.o
 .text          0x000000000000022c        0x0 ./dev/src/quad/main.o
 .text          0x000000000000022c        0x0 ./dev/src/motor/motor.o
 .text          0x000000000000022c        0x0 ./dev/src/hal/accelerometer.o
 .text          0x000000000000022c        0x0 ./dev/src/hal/gyro.o
 .text          0x000000000000022c        0x0 ./dev/src/hal/i2c.o
 .text          0x000000000000022c        0x0 ./dev/src/hal/input.o
 .text          0x000000000000022c        0x0 ./dev/src/hal/kalman.o
 .text          0x000000000000022c        0x0 ./dev/src/hal/pwm.o
 .text          0x000000000000022c        0x0 ./dev/src/hal/time.o
 .text          0x000000000000022c        0x0 ./dev/src/hal/timer.o
 .text          0x000000000000022c        0x0 ./dev/src/hal/uart.o
 .text          0x000000000000022c        0x0 ./dev/src/hal/wiring.o
 .text          0x000000000000022c        0x0 /usr/lib/gcc/avr/4.7.0/../../../avr/lib/avr6/libprintf_flt.a(vfprintf_flt.o)
 .text          0x000000000000022c        0x0 /usr/lib/gcc/avr/4.7.0/../../../avr/lib/avr6/libm.a(addsf3.o)
 .text          0x000000000000022c        0x0 /usr/lib/gcc/avr/4.7.0/../../../avr/lib/avr6/libm.a(addsf3x.o)
 .text          0x000000000000022c        0x0 /usr/lib/gcc/avr/4.7.0/../../../avr/lib/avr6/libm.a(divsf3.o)
 .text          0x000000000000022c        0x0 /usr/lib/gcc/avr/4.7.0/../../../avr/lib/avr6/libm.a(divsf3x.o)
 .text          0x000000000000022c        0x0 /usr/lib/gcc/avr/4.7.0/../../../avr/lib/avr6/libm.a(floatsisf.o)
 .text          0x000000000000022c        0x0 /usr/lib/gcc/avr/4.7.0/../../../avr/lib/avr6/libm.a(fp_inf.o)
 .text          0x000000000000022c        0x0 /usr/lib/gcc/avr/4.7.0/../../../avr/lib/avr6/libm.a(fp_nan.o)
 .text          0x000000000000022c        0x0 /usr/lib/gcc/avr/4.7.0/../../../avr/lib/avr6/libm.a(fp_pscA.o)
 .text          0x000000000000022c        0x0 /usr/lib/gcc/avr/4.7.0/../../../avr/lib/avr6/libm.a(fp_pscB.o)
 .text          0x000000000000022c        0x0 /usr/lib/gcc/avr/4.7.0/../../../avr/lib/avr6/libm.a(fp_round.o)
 .text          0x000000000000022c        0x0 /usr/lib/gcc/avr/4.7.0/../../../avr/lib/avr6/libm.a(fp_split3.o)
 .text          0x000000000000022c        0x0 /usr/lib/gcc/avr/4.7.0/../../../avr/lib/avr6/libm.a(fp_zero.o)
 .text          0x000000000000022c        0x0 /usr/lib/gcc/avr/4.7.0/../../../avr/lib/avr6/libm.a(mulsf3.o)
 .text          0x000000000000022c        0x0 /usr/lib/gcc/avr/4.7.0/../../../avr/lib/avr6/libm.a(mulsf3x.o)
 .text          0x000000000000022c        0x0 /usr/lib/gcc/avr/4.7.0/avr6/libgcc.a(_udivmodhi4.o)
 .text          0x000000000000022c        0x0 /usr/lib/gcc/avr/4.7.0/avr6/libgcc.a(_exit.o)
 .text          0x000000000000022c        0x0 /usr/lib/gcc/avr/4.7.0/avr6/libgcc.a(_copy_data.o)
 .text          0x000000000000022c        0x0 /usr/lib/gcc/avr/4.7.0/avr6/libgcc.a(_clear_bss.o)
 .text          0x000000000000022c        0x0 /usr/lib/gcc/avr/4.7.0/../../../avr/lib/avr6/libc.a(ftoa_engine.o)
 .text          0x000000000000022c        0x0 /usr/lib/gcc/avr/4.7.0/../../../avr/lib/avr6/libc.a(strnlen_P.o)
 .text          0x000000000000022c        0x0 /usr/lib/gcc/avr/4.7.0/../../../avr/lib/avr6/libc.a(strnlen.o)
 .text          0x000000000000022c        0x0 /usr/lib/gcc/avr/4.7.0/../../../avr/lib/avr6/libc.a(itoa.o)
 .text          0x000000000000022c        0x0 /usr/lib/gcc/avr/4.7.0/../../../avr/lib/avr6/libc.a(fputc.o)
 .text          0x000000000000022c        0x0 /usr/lib/gcc/avr/4.7.0/../../../avr/lib/avr6/libc.a(sprintf.o)
 .text          0x000000000000022c        0x0 /usr/lib/gcc/avr/4.7.0/../../../avr/lib/avr6/libc.a(ultoa_invert.o)
 .text          0x000000000000022c        0x0 /usr/lib/gcc/avr/4.7.0/../../../avr/lib/avr6/libc.a(strrev.o)
                0x000000000000022c                . = ALIGN (0x2)
 *(.text.*)
 .text.init_servo
                0x000000000000022c       0x12 ./dev/src/servo/servo.o
                0x000000000000022c                init_servo
 .text.set_servo_pos
                0x000000000000023e        0x6 ./dev/src/servo/servo.o
                0x000000000000023e                set_servo_pos
 .text.startup.main
                0x0000000000000244       0xf8 ./dev/src/quad/main.o
                0x0000000000000244                main
 .text.init_motor
                0x000000000000033c       0x52 ./dev/src/motor/motor.o
                0x000000000000033c                init_motor
 .text.set_throtle
                0x000000000000038e       0x2c ./dev/src/motor/motor.o
                0x000000000000038e                set_throtle
 .text.disable_motor
                0x00000000000003ba       0x1a ./dev/src/motor/motor.o
                0x00000000000003ba                disable_motor
 .text.init_accelerometer
                0x00000000000003d4       0x66 ./dev/src/hal/accelerometer.o
                0x00000000000003d4                init_accelerometer
 .text.ACC_Common
                0x000000000000043a      0x17a ./dev/src/hal/accelerometer.o
                0x000000000000043a                ACC_Common
 .text.accelerometer_get_data
                0x00000000000005b4      0x12e ./dev/src/hal/accelerometer.o
                0x00000000000005b4                accelerometer_get_data
 .text.init_gyro
                0x00000000000006e2       0x5c ./dev/src/hal/gyro.o
                0x00000000000006e2                init_gyro
 .text.gyro_get_temp
                0x000000000000073e       0x52 ./dev/src/hal/gyro.o
                0x000000000000073e                gyro_get_temp
 .text.GYRO_Common
                0x0000000000000790      0x13c ./dev/src/hal/gyro.o
                0x0000000000000790                GYRO_Common
 .text.gyro_get_data
                0x00000000000008cc       0xc8 ./dev/src/hal/gyro.o
                0x00000000000008cc                gyro_get_data
 .text.constrain
                0x0000000000000994       0x14 ./dev/src/hal/gyro.o
                0x0000000000000994                constrain
 .text.i2c_init
                0x00000000000009a8       0x16 ./dev/src/hal/i2c.o
                0x00000000000009a8                i2c_init
 .text.i2c_stop
                0x00000000000009be        0x8 ./dev/src/hal/i2c.o
                0x00000000000009be                i2c_stop
 .text.waitTransmissionI2C
                0x00000000000009c6       0x2c ./dev/src/hal/i2c.o
                0x00000000000009c6                waitTransmissionI2C
 .text.i2c_read
                0x00000000000009f2       0x28 ./dev/src/hal/i2c.o
                0x00000000000009f2                i2c_read
 .text.i2c_readNak
                0x0000000000000a1a        0x6 ./dev/src/hal/i2c.o
                0x0000000000000a1a                i2c_readNak
 .text.i2c_write
                0x0000000000000a20        0xe ./dev/src/hal/i2c.o
                0x0000000000000a20                i2c_write
 .text.i2c_rep_start
                0x0000000000000a2e       0x38 ./dev/src/hal/i2c.o
                0x0000000000000a2e                i2c_rep_start
 .text.i2c_readAck
                0x0000000000000a66       0x10 ./dev/src/hal/i2c.o
                0x0000000000000a66                i2c_readAck
 .text.i2c_read_to_buf
                0x0000000000000a76       0x6e ./dev/src/hal/i2c.o
                0x0000000000000a76                i2c_read_to_buf
 .text.i2c_read_reg_to_buf
                0x0000000000000ae4       0x44 ./dev/src/hal/i2c.o
                0x0000000000000ae4                i2c_read_reg_to_buf
 .text.swap_endianness
                0x0000000000000b28       0x1e ./dev/src/hal/i2c.o
                0x0000000000000b28                swap_endianness
 .text.i2c_getSixRawADC
                0x0000000000000b46        0xc ./dev/src/hal/i2c.o
                0x0000000000000b46                i2c_getSixRawADC
 .text.i2c_writeReg
                0x0000000000000b52       0x36 ./dev/src/hal/i2c.o
                0x0000000000000b52                i2c_writeReg
 .text.i2c_readReg
                0x0000000000000b88       0x22 ./dev/src/hal/i2c.o
                0x0000000000000b88                i2c_readReg
 .text.init_input
                0x0000000000000baa       0x1c ./dev/src/hal/input.o
                0x0000000000000baa                init_input
 .text.get_interrupt_pin_status
                0x0000000000000bc6       0x18 ./dev/src/hal/input.o
                0x0000000000000bc6                get_interrupt_pin_status
 .text.__vector_11
                0x0000000000000bde      0x122 ./dev/src/hal/input.o
                0x0000000000000bde                __vector_11
 .text.set_monitored_pin
                0x0000000000000d00        0xa ./dev/src/hal/input.o
                0x0000000000000d00                set_monitored_pin
 .text.stateUpdate
                0x0000000000000d0a      0x18c ./dev/src/hal/kalman.o
                0x0000000000000d0a                stateUpdate
 .text.kalmanUpdate
                0x0000000000000e96      0x230 ./dev/src/hal/kalman.o
                0x0000000000000e96                kalmanUpdate
 .text.init_pwm
                0x00000000000010c6       0xb2 ./dev/src/hal/pwm.o
                0x00000000000010c6                init_pwm
 .text.set_pwm  0x0000000000001178       0xe2 ./dev/src/hal/pwm.o
                0x0000000000001178                set_pwm
 .text.enable_pwm
                0x000000000000125a        0x4 ./dev/src/hal/pwm.o
                0x000000000000125a                enable_pwm
 .text.init_timer
                0x000000000000125e        0xc ./dev/src/hal/time.o
                0x000000000000125e                init_timer
 .text.read_timer
                0x000000000000126a        0xc ./dev/src/hal/time.o
                0x000000000000126a                read_timer
 .text.timerInit
                0x0000000000001276       0x24 ./dev/src/hal/timer.o
                0x0000000000001276                timerInit
 .text.__vector_13
                0x000000000000129a       0x4a ./dev/src/hal/timer.o
                0x000000000000129a                __vector_13
 .text.getMsTimer
                0x00000000000012e4       0x22 ./dev/src/hal/timer.o
                0x00000000000012e4                getMsTimer
 .text.uartInit
                0x0000000000001306       0x6c ./dev/src/hal/uart.o
                0x0000000000001306                uartInit
 .text.uart_putc
                0x0000000000001372       0x50 ./dev/src/hal/uart.o
                0x0000000000001372                uart_putc
 .text.uart_puts
                0x00000000000013c2       0x24 ./dev/src/hal/uart.o
                0x00000000000013c2                uart_puts
 .text.uart_puts_pgm
                0x00000000000013e6       0x2e ./dev/src/hal/uart.o
                0x00000000000013e6                uart_puts_pgm
 .text.uart_puti
                0x0000000000001414       0x4c ./dev/src/hal/uart.o
                0x0000000000001414                uart_puti
 .text.uart_getc
                0x0000000000001460       0x50 ./dev/src/hal/uart.o
                0x0000000000001460                uart_getc
 .text.__vector_25
                0x00000000000014b0       0x20 ./dev/src/hal/uart.o
                0x00000000000014b0                __vector_25
 .text.__vector_36
                0x00000000000014d0       0x20 ./dev/src/hal/uart.o
                0x00000000000014d0                __vector_36
 .text.__vector_51
                0x00000000000014f0       0x20 ./dev/src/hal/uart.o
                0x00000000000014f0                __vector_51
 .text.__vector_54
                0x0000000000001510       0x20 ./dev/src/hal/uart.o
                0x0000000000001510                __vector_54
 .text.__vector_27
                0x0000000000001530       0x5a ./dev/src/hal/uart.o
                0x0000000000001530                __vector_27
 .text.__vector_38
                0x000000000000158a       0x5a ./dev/src/hal/uart.o
                0x000000000000158a                __vector_38
 .text.__vector_53
                0x00000000000015e4       0x5a ./dev/src/hal/uart.o
                0x00000000000015e4                __vector_53
 .text.__vector_56
                0x000000000000163e       0x5a ./dev/src/hal/uart.o
                0x000000000000163e                __vector_56
 .text.__vector_23
                0x0000000000001698       0x94 ./dev/src/hal/wiring.o
                0x0000000000001698                __vector_23
 .text.millis   0x000000000000172c       0x24 ./dev/src/hal/wiring.o
                0x000000000000172c                millis
 .text.micros   0x0000000000001750       0x5e ./dev/src/hal/wiring.o
                0x0000000000001750                micros
 .text.delay    0x00000000000017ae       0x44 ./dev/src/hal/wiring.o
                0x00000000000017ae                delay
 .text.delayMicroseconds
                0x00000000000017f2       0x1a ./dev/src/hal/wiring.o
                0x00000000000017f2                delayMicroseconds
 .text.init     0x000000000000180c       0x74 ./dev/src/hal/wiring.o
                0x000000000000180c                init
 .text.avr-libc
                0x0000000000001880      0x75a /usr/lib/gcc/avr/4.7.0/../../../avr/lib/avr6/libprintf_flt.a(vfprintf_flt.o)
                0x0000000000001880                vfprintf
 .text.avr-libc.fplib
                0x0000000000001fda        0xa /usr/lib/gcc/avr/4.7.0/../../../avr/lib/avr6/libm.a(addsf3.o)
                0x0000000000001fda                __subsf3
                0x0000000000001fdc                __addsf3
 .text.avr-libc.fplib
                0x0000000000001fe4       0xc0 /usr/lib/gcc/avr/4.7.0/../../../avr/lib/avr6/libm.a(addsf3x.o)
                0x0000000000001ffe                __addsf3x
 .text.avr-libc.fplib
                0x00000000000020a4        0x4 /usr/lib/gcc/avr/4.7.0/../../../avr/lib/avr6/libm.a(divsf3.o)
                0x00000000000020a4                __divsf3
 .text.avr-libc.fplib
                0x00000000000020a8       0xcc /usr/lib/gcc/avr/4.7.0/../../../avr/lib/avr6/libm.a(divsf3x.o)
                0x00000000000020be                __divsf3x
                0x00000000000020c2                __divsf3_pse
 .text.avr-libc.fplib
                0x0000000000002174       0x7a /usr/lib/gcc/avr/4.7.0/../../../avr/lib/avr6/libm.a(floatsisf.o)
                0x0000000000002174                __floatunsisf
                0x0000000000002178                __floatsisf
 .text.avr-libc.fplib
                0x00000000000021ee        0xc /usr/lib/gcc/avr/4.7.0/../../../avr/lib/avr6/libm.a(fp_inf.o)
                0x00000000000021ee                __fp_inf
 .text.avr-libc.fplib
                0x00000000000021fa        0x6 /usr/lib/gcc/avr/4.7.0/../../../avr/lib/avr6/libm.a(fp_nan.o)
                0x00000000000021fa                __fp_nan
 .text.avr-libc.fplib
                0x0000000000002200        0xe /usr/lib/gcc/avr/4.7.0/../../../avr/lib/avr6/libm.a(fp_pscA.o)
                0x0000000000002200                __fp_pscA
 .text.avr-libc.fplib
                0x000000000000220e        0xe /usr/lib/gcc/avr/4.7.0/../../../avr/lib/avr6/libm.a(fp_pscB.o)
                0x000000000000220e                __fp_pscB
 .text.avr-libc.fplib
                0x000000000000221c       0x22 /usr/lib/gcc/avr/4.7.0/../../../avr/lib/avr6/libm.a(fp_round.o)
                0x000000000000221c                __fp_round
 .text.avr-libc.fplib
                0x000000000000223e       0x44 /usr/lib/gcc/avr/4.7.0/../../../avr/lib/avr6/libm.a(fp_split3.o)
                0x000000000000223e                __fp_split3
                0x000000000000224e                __fp_splitA
 .text.avr-libc.fplib
                0x0000000000002282        0xe /usr/lib/gcc/avr/4.7.0/../../../avr/lib/avr6/libm.a(fp_zero.o)
                0x0000000000002282                __fp_zero
                0x0000000000002284                __fp_szero
 .text.avr-libc.fplib
                0x0000000000002290        0x4 /usr/lib/gcc/avr/4.7.0/../../../avr/lib/avr6/libm.a(mulsf3.o)
                0x0000000000002290                __mulsf3
 .text.avr-libc.fplib
                0x0000000000002294       0xc2 /usr/lib/gcc/avr/4.7.0/../../../avr/lib/avr6/libm.a(mulsf3x.o)
                0x00000000000022a8                __mulsf3x
                0x00000000000022ac                __mulsf3_pse
 .text.libgcc.mul
                0x0000000000002356        0x0 /usr/lib/gcc/avr/4.7.0/avr6/libgcc.a(_udivmodhi4.o)
 .text.libgcc.div
                0x0000000000002356       0x28 /usr/lib/gcc/avr/4.7.0/avr6/libgcc.a(_udivmodhi4.o)
                0x0000000000002356                __udivmodhi4
 .text.libgcc   0x000000000000237e        0x0 /usr/lib/gcc/avr/4.7.0/avr6/libgcc.a(_udivmodhi4.o)
 .text.libgcc.prologue
                0x000000000000237e        0x0 /usr/lib/gcc/avr/4.7.0/avr6/libgcc.a(_udivmodhi4.o)
 .text.libgcc.builtins
                0x000000000000237e        0x0 /usr/lib/gcc/avr/4.7.0/avr6/libgcc.a(_udivmodhi4.o)
 .text.libgcc.fmul
                0x000000000000237e        0x0 /usr/lib/gcc/avr/4.7.0/avr6/libgcc.a(_udivmodhi4.o)
 .text.libgcc.mul
                0x000000000000237e        0x0 /usr/lib/gcc/avr/4.7.0/avr6/libgcc.a(_exit.o)
 .text.libgcc.div
                0x000000000000237e        0x0 /usr/lib/gcc/avr/4.7.0/avr6/libgcc.a(_exit.o)
 .text.libgcc   0x000000000000237e        0x0 /usr/lib/gcc/avr/4.7.0/avr6/libgcc.a(_exit.o)
 .text.libgcc.prologue
                0x000000000000237e        0x0 /usr/lib/gcc/avr/4.7.0/avr6/libgcc.a(_exit.o)
 .text.libgcc.builtins
                0x000000000000237e        0x0 /usr/lib/gcc/avr/4.7.0/avr6/libgcc.a(_exit.o)
 .text.libgcc.fmul
                0x000000000000237e        0x0 /usr/lib/gcc/avr/4.7.0/avr6/libgcc.a(_exit.o)
 .text.libgcc.mul
                0x000000000000237e        0x0 /usr/lib/gcc/avr/4.7.0/avr6/libgcc.a(_copy_data.o)
 .text.libgcc.div
                0x000000000000237e        0x0 /usr/lib/gcc/avr/4.7.0/avr6/libgcc.a(_copy_data.o)
 .text.libgcc   0x000000000000237e        0x0 /usr/lib/gcc/avr/4.7.0/avr6/libgcc.a(_copy_data.o)
 .text.libgcc.prologue
                0x000000000000237e        0x0 /usr/lib/gcc/avr/4.7.0/avr6/libgcc.a(_copy_data.o)
 .text.libgcc.builtins
                0x000000000000237e        0x0 /usr/lib/gcc/avr/4.7.0/avr6/libgcc.a(_copy_data.o)
 .text.libgcc.fmul
                0x000000000000237e        0x0 /usr/lib/gcc/avr/4.7.0/avr6/libgcc.a(_copy_data.o)
 .text.libgcc.mul
                0x000000000000237e        0x0 /usr/lib/gcc/avr/4.7.0/avr6/libgcc.a(_clear_bss.o)
 .text.libgcc.div
                0x000000000000237e        0x0 /usr/lib/gcc/avr/4.7.0/avr6/libgcc.a(_clear_bss.o)
 .text.libgcc   0x000000000000237e        0x0 /usr/lib/gcc/avr/4.7.0/avr6/libgcc.a(_clear_bss.o)
 .text.libgcc.prologue
                0x000000000000237e        0x0 /usr/lib/gcc/avr/4.7.0/avr6/libgcc.a(_clear_bss.o)
 .text.libgcc.builtins
                0x000000000000237e        0x0 /usr/lib/gcc/avr/4.7.0/avr6/libgcc.a(_clear_bss.o)
 .text.libgcc.fmul
                0x000000000000237e        0x0 /usr/lib/gcc/avr/4.7.0/avr6/libgcc.a(_clear_bss.o)
 .text.avr-libc
                0x000000000000237e      0x1b0 /usr/lib/gcc/avr/4.7.0/../../../avr/lib/avr6/libc.a(ftoa_engine.o)
                0x000000000000237e                __ftoa_engine
 .text.avr-libc
                0x000000000000252e       0x16 /usr/lib/gcc/avr/4.7.0/../../../avr/lib/avr6/libc.a(strnlen_P.o)
                0x000000000000252e                strnlen_P
 .text.avr-libc
                0x0000000000002544       0x16 /usr/lib/gcc/avr/4.7.0/../../../avr/lib/avr6/libc.a(strnlen.o)
                0x0000000000002544                strnlen
 .text.avr-libc
                0x000000000000255a       0x42 /usr/lib/gcc/avr/4.7.0/../../../avr/lib/avr6/libc.a(itoa.o)
                0x000000000000255a                itoa
 .text.avr-libc
                0x000000000000259c       0x58 /usr/lib/gcc/avr/4.7.0/../../../avr/lib/avr6/libc.a(fputc.o)
                0x000000000000259c                fputc
 .text.avr-libc
                0x00000000000025f4       0x62 /usr/lib/gcc/avr/4.7.0/../../../avr/lib/avr6/libc.a(sprintf.o)
                0x00000000000025f4                sprintf
 .text.avr-libc
                0x0000000000002656       0xbc /usr/lib/gcc/avr/4.7.0/../../../avr/lib/avr6/libc.a(ultoa_invert.o)
                0x0000000000002656                __ultoa_invert
 .text.avr-libc
                0x0000000000002712       0x20 /usr/lib/gcc/avr/4.7.0/../../../avr/lib/avr6/libc.a(strrev.o)
                0x0000000000002712                strrev
                0x0000000000002732                . = ALIGN (0x2)
 *(.fini9)
 .fini9         0x0000000000002732        0x0 /usr/lib/gcc/avr/4.7.0/avr6/libgcc.a(_exit.o)
                0x0000000000002732                exit
                0x0000000000002732                _exit
 *(.fini9)
 *(.fini8)
 *(.fini8)
 *(.fini7)
 *(.fini7)
 *(.fini6)
 *(.fini6)
 *(.fini5)
 *(.fini5)
 *(.fini4)
 *(.fini4)
 *(.fini3)
 *(.fini3)
 *(.fini2)
 *(.fini2)
 *(.fini1)
 *(.fini1)
 *(.fini0)
 .fini0         0x0000000000002732        0x4 /usr/lib/gcc/avr/4.7.0/avr6/libgcc.a(_exit.o)
 *(.fini0)
                0x0000000000002736                _etext = .

.data           0x0000000000800200       0x76 load address 0x0000000000002736
                0x0000000000800200                PROVIDE (__data_start, .)
 *(.data)
 .data          0x0000000000800200        0x0 /usr/lib/gcc/avr/4.7.0/../../../avr/lib/avr6/crtm2560.o
 .data          0x0000000000800200        0x0 ./dev/src/servo/servo.o
 .data          0x0000000000800200        0x0 ./dev/src/quad/main.o
 .data          0x0000000000800200        0x0 ./dev/src/motor/motor.o
 .data          0x0000000000800200        0x0 ./dev/src/hal/accelerometer.o
 .data          0x0000000000800200        0x0 ./dev/src/hal/gyro.o
 .data          0x0000000000800200        0x0 ./dev/src/hal/i2c.o
 .data          0x0000000000800200        0x0 ./dev/src/hal/input.o
 .data          0x0000000000800200        0x0 ./dev/src/hal/kalman.o
 .data          0x0000000000800200        0x0 ./dev/src/hal/pwm.o
 .data          0x0000000000800200        0x0 ./dev/src/hal/time.o
 .data          0x0000000000800200        0x0 ./dev/src/hal/timer.o
 .data          0x0000000000800200        0x0 ./dev/src/hal/uart.o
 .data          0x0000000000800200        0x0 ./dev/src/hal/wiring.o
 .data          0x0000000000800200        0x0 /usr/lib/gcc/avr/4.7.0/../../../avr/lib/avr6/libprintf_flt.a(vfprintf_flt.o)
 .data          0x0000000000800200        0x0 /usr/lib/gcc/avr/4.7.0/../../../avr/lib/avr6/libm.a(addsf3.o)
 .data          0x0000000000800200        0x0 /usr/lib/gcc/avr/4.7.0/../../../avr/lib/avr6/libm.a(addsf3x.o)
 .data          0x0000000000800200        0x0 /usr/lib/gcc/avr/4.7.0/../../../avr/lib/avr6/libm.a(divsf3.o)
 .data          0x0000000000800200        0x0 /usr/lib/gcc/avr/4.7.0/../../../avr/lib/avr6/libm.a(divsf3x.o)
 .data          0x0000000000800200        0x0 /usr/lib/gcc/avr/4.7.0/../../../avr/lib/avr6/libm.a(floatsisf.o)
 .data          0x0000000000800200        0x0 /usr/lib/gcc/avr/4.7.0/../../../avr/lib/avr6/libm.a(fp_inf.o)
 .data          0x0000000000800200        0x0 /usr/lib/gcc/avr/4.7.0/../../../avr/lib/avr6/libm.a(fp_nan.o)
 .data          0x0000000000800200        0x0 /usr/lib/gcc/avr/4.7.0/../../../avr/lib/avr6/libm.a(fp_pscA.o)
 .data          0x0000000000800200        0x0 /usr/lib/gcc/avr/4.7.0/../../../avr/lib/avr6/libm.a(fp_pscB.o)
 .data          0x0000000000800200        0x0 /usr/lib/gcc/avr/4.7.0/../../../avr/lib/avr6/libm.a(fp_round.o)
 .data          0x0000000000800200        0x0 /usr/lib/gcc/avr/4.7.0/../../../avr/lib/avr6/libm.a(fp_split3.o)
 .data          0x0000000000800200        0x0 /usr/lib/gcc/avr/4.7.0/../../../avr/lib/avr6/libm.a(fp_zero.o)
 .data          0x0000000000800200        0x0 /usr/lib/gcc/avr/4.7.0/../../../avr/lib/avr6/libm.a(mulsf3.o)
 .data          0x0000000000800200        0x0 /usr/lib/gcc/avr/4.7.0/../../../avr/lib/avr6/libm.a(mulsf3x.o)
 .data          0x0000000000800200        0x0 /usr/lib/gcc/avr/4.7.0/avr6/libgcc.a(_udivmodhi4.o)
 .data          0x0000000000800200        0x0 /usr/lib/gcc/avr/4.7.0/avr6/libgcc.a(_exit.o)
 .data          0x0000000000800200        0x0 /usr/lib/gcc/avr/4.7.0/avr6/libgcc.a(_copy_data.o)
 .data          0x0000000000800200        0x0 /usr/lib/gcc/avr/4.7.0/avr6/libgcc.a(_clear_bss.o)
 .data          0x0000000000800200        0x0 /usr/lib/gcc/avr/4.7.0/../../../avr/lib/avr6/libc.a(ftoa_engine.o)
 .data          0x0000000000800200        0x0 /usr/lib/gcc/avr/4.7.0/../../../avr/lib/avr6/libc.a(strnlen_P.o)
 .data          0x0000000000800200        0x0 /usr/lib/gcc/avr/4.7.0/../../../avr/lib/avr6/libc.a(strnlen.o)
 .data          0x0000000000800200        0x0 /usr/lib/gcc/avr/4.7.0/../../../avr/lib/avr6/libc.a(itoa.o)
 .data          0x0000000000800200        0x0 /usr/lib/gcc/avr/4.7.0/../../../avr/lib/avr6/libc.a(fputc.o)
 .data          0x0000000000800200        0x0 /usr/lib/gcc/avr/4.7.0/../../../avr/lib/avr6/libc.a(sprintf.o)
 .data          0x0000000000800200        0x0 /usr/lib/gcc/avr/4.7.0/../../../avr/lib/avr6/libc.a(ultoa_invert.o)
 .data          0x0000000000800200        0x0 /usr/lib/gcc/avr/4.7.0/../../../avr/lib/avr6/libc.a(strrev.o)
 *(.data*)
 .data.value    0x0000000000800200        0x2 ./dev/src/quad/main.o
                0x0000000000800200                value
 .data.buffer   0x0000000000800202       0x28 ./dev/src/quad/main.o
                0x0000000000800202                buffer
 .data.calibratingA
                0x000000000080022a        0x2 ./dev/src/hal/accelerometer.o
                0x000000000080022a                calibratingA
 .data.P        0x000000000080022c       0x10 ./dev/src/hal/kalman.o
 *(.rodata)
 *(.rodata*)
 .rodata.str1.1
                0x000000000080023c       0x2a ./dev/src/quad/main.o
 .rodata.str1.1
                0x0000000000800266        0xf ./dev/src/hal/uart.o
 *(.gnu.linkonce.d*)
                0x0000000000800276                . = ALIGN (0x2)
 *fill*         0x0000000000800275        0x1 00
                0x0000000000800276                _edata = .
                0x0000000000800276                PROVIDE (__data_end, .)

.bss            0x0000000000800276      0x141
                0x0000000000800276                PROVIDE (__bss_start, .)
 *(.bss)
 .bss           0x0000000000800276        0x0 /usr/lib/gcc/avr/4.7.0/../../../avr/lib/avr6/crtm2560.o
 .bss           0x0000000000800276        0x0 ./dev/src/servo/servo.o
 .bss           0x0000000000800276        0x0 ./dev/src/quad/main.o
 .bss           0x0000000000800276        0x0 ./dev/src/motor/motor.o
 .bss           0x0000000000800276        0x0 ./dev/src/hal/accelerometer.o
 .bss           0x0000000000800276        0x0 ./dev/src/hal/gyro.o
 .bss           0x0000000000800276        0x0 ./dev/src/hal/i2c.o
 .bss           0x0000000000800276        0x0 ./dev/src/hal/input.o
 .bss           0x0000000000800276        0x0 ./dev/src/hal/kalman.o
 .bss           0x0000000000800276        0x0 ./dev/src/hal/pwm.o
 .bss           0x0000000000800276        0x0 ./dev/src/hal/time.o
 .bss           0x0000000000800276        0x0 ./dev/src/hal/timer.o
 .bss           0x0000000000800276        0x0 ./dev/src/hal/uart.o
 .bss           0x0000000000800276        0x0 ./dev/src/hal/wiring.o
 .bss           0x0000000000800276        0x0 /usr/lib/gcc/avr/4.7.0/../../../avr/lib/avr6/libprintf_flt.a(vfprintf_flt.o)
 .bss           0x0000000000800276        0x0 /usr/lib/gcc/avr/4.7.0/../../../avr/lib/avr6/libm.a(addsf3.o)
 .bss           0x0000000000800276        0x0 /usr/lib/gcc/avr/4.7.0/../../../avr/lib/avr6/libm.a(addsf3x.o)
 .bss           0x0000000000800276        0x0 /usr/lib/gcc/avr/4.7.0/../../../avr/lib/avr6/libm.a(divsf3.o)
 .bss           0x0000000000800276        0x0 /usr/lib/gcc/avr/4.7.0/../../../avr/lib/avr6/libm.a(divsf3x.o)
 .bss           0x0000000000800276        0x0 /usr/lib/gcc/avr/4.7.0/../../../avr/lib/avr6/libm.a(floatsisf.o)
 .bss           0x0000000000800276        0x0 /usr/lib/gcc/avr/4.7.0/../../../avr/lib/avr6/libm.a(fp_inf.o)
 .bss           0x0000000000800276        0x0 /usr/lib/gcc/avr/4.7.0/../../../avr/lib/avr6/libm.a(fp_nan.o)
 .bss           0x0000000000800276        0x0 /usr/lib/gcc/avr/4.7.0/../../../avr/lib/avr6/libm.a(fp_pscA.o)
 .bss           0x0000000000800276        0x0 /usr/lib/gcc/avr/4.7.0/../../../avr/lib/avr6/libm.a(fp_pscB.o)
 .bss           0x0000000000800276        0x0 /usr/lib/gcc/avr/4.7.0/../../../avr/lib/avr6/libm.a(fp_round.o)
 .bss           0x0000000000800276        0x0 /usr/lib/gcc/avr/4.7.0/../../../avr/lib/avr6/libm.a(fp_split3.o)
 .bss           0x0000000000800276        0x0 /usr/lib/gcc/avr/4.7.0/../../../avr/lib/avr6/libm.a(fp_zero.o)
 .bss           0x0000000000800276        0x0 /usr/lib/gcc/avr/4.7.0/../../../avr/lib/avr6/libm.a(mulsf3.o)
 .bss           0x0000000000800276        0x0 /usr/lib/gcc/avr/4.7.0/../../../avr/lib/avr6/libm.a(mulsf3x.o)
 .bss           0x0000000000800276        0x0 /usr/lib/gcc/avr/4.7.0/avr6/libgcc.a(_udivmodhi4.o)
 .bss           0x0000000000800276        0x0 /usr/lib/gcc/avr/4.7.0/avr6/libgcc.a(_exit.o)
 .bss           0x0000000000800276        0x0 /usr/lib/gcc/avr/4.7.0/avr6/libgcc.a(_copy_data.o)
 .bss           0x0000000000800276        0x0 /usr/lib/gcc/avr/4.7.0/avr6/libgcc.a(_clear_bss.o)
 .bss           0x0000000000800276        0x0 /usr/lib/gcc/avr/4.7.0/../../../avr/lib/avr6/libc.a(ftoa_engine.o)
 .bss           0x0000000000800276        0x0 /usr/lib/gcc/avr/4.7.0/../../../avr/lib/avr6/libc.a(strnlen_P.o)
 .bss           0x0000000000800276        0x0 /usr/lib/gcc/avr/4.7.0/../../../avr/lib/avr6/libc.a(strnlen.o)
 .bss           0x0000000000800276        0x0 /usr/lib/gcc/avr/4.7.0/../../../avr/lib/avr6/libc.a(itoa.o)
 .bss           0x0000000000800276        0x0 /usr/lib/gcc/avr/4.7.0/../../../avr/lib/avr6/libc.a(fputc.o)
 .bss           0x0000000000800276        0x0 /usr/lib/gcc/avr/4.7.0/../../../avr/lib/avr6/libc.a(sprintf.o)
 .bss           0x0000000000800276        0x0 /usr/lib/gcc/avr/4.7.0/../../../avr/lib/avr6/libc.a(ultoa_invert.o)
 .bss           0x0000000000800276        0x0 /usr/lib/gcc/avr/4.7.0/../../../avr/lib/avr6/libc.a(strrev.o)
 *(.bss*)
 .bss.errorAltitudeI
                0x0000000000800276        0x2 ./dev/src/hal/accelerometer.o
                0x0000000000800276                errorAltitudeI
 .bss.BaroPID   0x0000000000800278        0x2 ./dev/src/hal/accelerometer.o
                0x0000000000800278                BaroPID
 .bss.cycleTime
                0x000000000080027a        0x2 ./dev/src/hal/accelerometer.o
                0x000000000080027a                cycleTime
 .bss.a.1792    0x000000000080027c        0xc ./dev/src/hal/accelerometer.o
 .bss.g.1793    0x0000000000800288        0xc ./dev/src/hal/gyro.o
 .bss.previousGyroADC.1792
                0x0000000000800294        0x6 ./dev/src/hal/gyro.o
 .bss.i2c_errors_count
                0x000000000080029a        0x2 ./dev/src/hal/i2c.o
                0x000000000080029a                i2c_errors_count
 .bss.started   0x000000000080029c        0x1 ./dev/src/hal/input.o
                0x000000000080029c                started
 .bss.receiver_mask
                0x000000000080029d        0x1 ./dev/src/hal/input.o
                0x000000000080029d                receiver_mask
 .bss.pin_pos   0x000000000080029e        0x1 ./dev/src/hal/input.o
                0x000000000080029e                pin_pos
 .bss.positive  0x000000000080029f       0x10 ./dev/src/hal/input.o
                0x000000000080029f                positive
 .bss.end_pos   0x00000000008002af       0x10 ./dev/src/hal/input.o
                0x00000000008002af                end_pos
 .bss.start_pos
                0x00000000008002bf       0x10 ./dev/src/hal/input.o
                0x00000000008002bf                start_pos
 .bss.delta     0x00000000008002cf        0x2 ./dev/src/hal/input.o
                0x00000000008002cf                delta
 .bss.last_input_state.1412
                0x00000000008002d1        0x1 ./dev/src/hal/input.o
 .bss.input_uart
                0x00000000008002d2        0x1 ./dev/src/hal/uart.o
                0x00000000008002d2                input_uart
 .bss.timer0_millis
                0x00000000008002d3        0x4 ./dev/src/hal/wiring.o
                0x00000000008002d3                timer0_millis
 .bss.timer0_overflow_count
                0x00000000008002d7        0x4 ./dev/src/hal/wiring.o
                0x00000000008002d7                timer0_overflow_count
 .bss.timer0_fract
                0x00000000008002db        0x1 ./dev/src/hal/wiring.o
 *(COMMON)
 COMMON         0x00000000008002dc        0xc ./dev/src/quad/main.o
                0x00000000008002dc                data
 COMMON         0x00000000008002e8       0xad ./dev/src/hal/accelerometer.o
                0x00000000008002e8                conf
                0x000000000080034f                sonarAlt
                0x0000000000800351                imu
                0x0000000000800371                magHold
                0x0000000000800373                rawADC
                0x0000000000800379                AltHold
                0x000000000080037d                previousTime
                0x000000000080037f                headFreeModeHold
                0x0000000000800381                global_conf
                0x0000000000800391                currentTime
 COMMON         0x0000000000800395       0x12 ./dev/src/hal/gyro.o
                0x0000000000800395                gyroZero
                0x000000000080039d                calibratingG
                0x000000000080039f                Gyro_Accum
                0x00000000008003a5                calibratingB
 COMMON         0x00000000008003a7        0xc ./dev/src/hal/kalman.o
                0x00000000008003a7                rate
                0x00000000008003ab                q_bias
                0x00000000008003af                angle
 COMMON         0x00000000008003b3        0x4 ./dev/src/hal/timer.o
                0x00000000008003b3                ms_timer
                0x00000000008003b7                PROVIDE (__bss_end, .)
                0x0000000000002736                __data_load_start = LOADADDR (.data)
                0x00000000000027ac                __data_load_end = (__data_load_start + SIZEOF (.data))

.noinit         0x00000000008003b7        0x0
                0x00000000008003b7                PROVIDE (__noinit_start, .)
 *(.noinit*)
                0x00000000008003b7                PROVIDE (__noinit_end, .)
                0x00000000008003b7                _end = .
                0x00000000008003b7                PROVIDE (__heap_start, .)

.eeprom         0x0000000000810000        0x0
 *(.eeprom*)
                0x0000000000810000                __eeprom_end = .

.fuse
 *(.fuse)
 *(.lfuse)
 *(.hfuse)
 *(.efuse)

.lock
 *(.lock*)

.signature
 *(.signature*)

.stab           0x0000000000000000     0x4824
 *(.stab)
 .stab          0x0000000000000000      0x6e4 /usr/lib/gcc/avr/4.7.0/../../../avr/lib/avr6/crtm2560.o
 .stab          0x00000000000006e4     0x12fc /usr/lib/gcc/avr/4.7.0/../../../avr/lib/avr6/libprintf_flt.a(vfprintf_flt.o)
                                       0x1308 (size before relaxing)
 .stab          0x00000000000019e0       0x78 /usr/lib/gcc/avr/4.7.0/../../../avr/lib/avr6/libm.a(addsf3.o)
                                         0x84 (size before relaxing)
 .stab          0x0000000000001a58      0x4bc /usr/lib/gcc/avr/4.7.0/../../../avr/lib/avr6/libm.a(addsf3x.o)
                                        0x4c8 (size before relaxing)
 .stab          0x0000000000001f14       0x48 /usr/lib/gcc/avr/4.7.0/../../../avr/lib/avr6/libm.a(divsf3.o)
                                         0x54 (size before relaxing)
 .stab          0x0000000000001f5c      0x510 /usr/lib/gcc/avr/4.7.0/../../../avr/lib/avr6/libm.a(divsf3x.o)
                                        0x51c (size before relaxing)
 .stab          0x000000000000246c      0x318 /usr/lib/gcc/avr/4.7.0/../../../avr/lib/avr6/libm.a(floatsisf.o)
                                        0x324 (size before relaxing)
 .stab          0x0000000000002784       0x78 /usr/lib/gcc/avr/4.7.0/../../../avr/lib/avr6/libm.a(fp_inf.o)
                                         0x84 (size before relaxing)
 .stab          0x00000000000027fc       0x54 /usr/lib/gcc/avr/4.7.0/../../../avr/lib/avr6/libm.a(fp_nan.o)
                                         0x60 (size before relaxing)
 .stab          0x0000000000002850       0x84 /usr/lib/gcc/avr/4.7.0/../../../avr/lib/avr6/libm.a(fp_pscA.o)
                                         0x90 (size before relaxing)
 .stab          0x00000000000028d4       0x84 /usr/lib/gcc/avr/4.7.0/../../../avr/lib/avr6/libm.a(fp_pscB.o)
                                         0x90 (size before relaxing)
 .stab          0x0000000000002958       0xfc /usr/lib/gcc/avr/4.7.0/../../../avr/lib/avr6/libm.a(fp_round.o)
                                        0x108 (size before relaxing)
 .stab          0x0000000000002a54      0x1d4 /usr/lib/gcc/avr/4.7.0/../../../avr/lib/avr6/libm.a(fp_split3.o)
                                        0x1e0 (size before relaxing)
 .stab          0x0000000000002c28       0x90 /usr/lib/gcc/avr/4.7.0/../../../avr/lib/avr6/libm.a(fp_zero.o)
                                         0x9c (size before relaxing)
 .stab          0x0000000000002cb8       0x48 /usr/lib/gcc/avr/4.7.0/../../../avr/lib/avr6/libm.a(mulsf3.o)
                                         0x54 (size before relaxing)
 .stab          0x0000000000002d00      0x4d4 /usr/lib/gcc/avr/4.7.0/../../../avr/lib/avr6/libm.a(mulsf3x.o)
                                        0x4e0 (size before relaxing)
 .stab          0x00000000000031d4      0xa38 /usr/lib/gcc/avr/4.7.0/../../../avr/lib/avr6/libc.a(ftoa_engine.o)
                                        0xa44 (size before relaxing)
 .stab          0x0000000000003c0c       0x9c /usr/lib/gcc/avr/4.7.0/../../../avr/lib/avr6/libc.a(strnlen_P.o)
                                         0xa8 (size before relaxing)
 .stab          0x0000000000003ca8       0x9c /usr/lib/gcc/avr/4.7.0/../../../avr/lib/avr6/libc.a(strnlen.o)
                                         0xa8 (size before relaxing)
 .stab          0x0000000000003d44      0x1b0 /usr/lib/gcc/avr/4.7.0/../../../avr/lib/avr6/libc.a(itoa.o)
                                        0x1bc (size before relaxing)
 .stab          0x0000000000003ef4      0x1d4 /usr/lib/gcc/avr/4.7.0/../../../avr/lib/avr6/libc.a(fputc.o)
                                        0x3b4 (size before relaxing)
 .stab          0x00000000000040c8      0x204 /usr/lib/gcc/avr/4.7.0/../../../avr/lib/avr6/libc.a(sprintf.o)
                                        0x3e4 (size before relaxing)
 .stab          0x00000000000042cc      0x480 /usr/lib/gcc/avr/4.7.0/../../../avr/lib/avr6/libc.a(ultoa_invert.o)
                                        0x48c (size before relaxing)
 .stab          0x000000000000474c       0xd8 /usr/lib/gcc/avr/4.7.0/../../../avr/lib/avr6/libc.a(strrev.o)
                                         0xe4 (size before relaxing)

.stabstr        0x0000000000000000      0xe35
 *(.stabstr)
 .stabstr       0x0000000000000000      0xe35 /usr/lib/gcc/avr/4.7.0/../../../avr/lib/avr6/crtm2560.o

.stab.excl
 *(.stab.excl)

.stab.exclstr
 *(.stab.exclstr)

.stab.index
 *(.stab.index)

.stab.indexstr
 *(.stab.indexstr)

.comment        0x0000000000000000       0x11
 *(.comment)
 .comment       0x0000000000000000       0x11 ./dev/src/servo/servo.o
                                         0x12 (size before relaxing)
 .comment       0x0000000000000000       0x12 ./dev/src/quad/main.o
 .comment       0x0000000000000000       0x12 ./dev/src/motor/motor.o
 .comment       0x0000000000000000       0x12 ./dev/src/hal/accelerometer.o
 .comment       0x0000000000000000       0x12 ./dev/src/hal/gyro.o
 .comment       0x0000000000000000       0x12 ./dev/src/hal/i2c.o
 .comment       0x0000000000000000       0x12 ./dev/src/hal/input.o
 .comment       0x0000000000000000       0x12 ./dev/src/hal/kalman.o
 .comment       0x0000000000000000       0x12 ./dev/src/hal/pwm.o
 .comment       0x0000000000000000       0x12 ./dev/src/hal/time.o
 .comment       0x0000000000000000       0x12 ./dev/src/hal/timer.o
 .comment       0x0000000000000000       0x12 ./dev/src/hal/uart.o
 .comment       0x0000000000000000       0x12 ./dev/src/hal/wiring.o
 .comment       0x0000000000000000       0x12 /usr/lib/gcc/avr/4.7.0/../../../avr/lib/avr6/libprintf_flt.a(vfprintf_flt.o)
 .comment       0x0000000000000000       0x12 /usr/lib/gcc/avr/4.7.0/../../../avr/lib/avr6/libc.a(fputc.o)
 .comment       0x0000000000000000       0x12 /usr/lib/gcc/avr/4.7.0/../../../avr/lib/avr6/libc.a(sprintf.o)

.debug
 *(.debug)

.line
 *(.line)

.debug_srcinfo
 *(.debug_srcinfo)

.debug_sfnames
 *(.debug_sfnames)

.debug_aranges
 *(.debug_aranges)

.debug_pubnames
 *(.debug_pubnames)

.debug_info
 *(.debug_info)
 *(.gnu.linkonce.wi.*)

.debug_abbrev
 *(.debug_abbrev)

.debug_line
 *(.debug_line)

.debug_frame
 *(.debug_frame)

.debug_str
 *(.debug_str)

.debug_loc
 *(.debug_loc)

.debug_macinfo
 *(.debug_macinfo)
OUTPUT(quadcopter.elf elf32-avr)
LOAD linker stubs
